Certificate:
    Data:
        Version: 3 (0x2)
        Serial Number: 1 (0x1)
        Signature Algorithm: sha256WithRSAEncryption
        Issuer: C=US, ST=New Hampshire, L=Littleton, O=Test CA, Limited, OU=Server Research Department, CN=Test CA/emailAddress=test@example.com
        Validity
            Not Before: Apr 24 19:22:14 2022 GMT
            Not After : Mar 31 19:22:14 2122 GMT
        Subject: C=US, ST=Louisiana, L=Marksville, O=Test CA, Limited, OU=Server Research Department, CN=Test CA
        Subject Public Key Info:
            Public Key Algorithm: rsaEncryption
                RSA Public-Key: (2048 bit)
                Modulus:
                    00:d1:42:75:50:28:6e:4c:a7:13:36:7b:19:29:f7:
                    fd:c7:3e:98:ac:36:83:96:63:99:db:cd:4c:fb:aa:
                    4a:a5:48:ea:36:ab:70:ed:b7:37:ac:85:a8:f7:76:
                    1c:34:05:67:69:df:3f:4c:3a:c8:dc:3b:98:12:72:
                    c8:04:de:54:d1:00:2d:35:b6:3f:2d:23:88:9b:94:
                    2f:a4:29:5a:58:e7:02:19:48:42:25:04:42:4a:a4:
                    07:bb:11:ba:22:65:56:b9:37:79:c2:66:3d:19:95:
                    48:70:65:12:12:92:d1:02:b2:a4:aa:bb:46:03:5e:
                    1d:21:5d:5f:1a:ee:fc:8d:6c:ee:6f:f0:6f:d5:ce:
                    3c:51:56:23:b3:5b:6a:f2:3b:eb:d0:a5:1c:05:36:
                    49:e5:94:f3:8d:5f:b4:0d:94:ca:d9:5a:51:a9:76:
                    0b:46:5f:db:a3:04:ba:35:ef:37:08:45:be:6e:5c:
                    21:be:1a:cd:8f:ab:6c:ff:3d:fa:73:dd:9d:0d:07:
                    13:aa:31:86:a3:fe:ab:7e:71:95:29:20:34:dd:b8:
                    e9:f6:89:84:32:a6:b5:1e:8a:79:7d:c7:5b:84:1e:
                    9c:af:7b:23:26:2a:13:d2:e7:0e:21:10:5f:05:71:
                    c5:98:0c:69:4c:32:0f:a3:ea:44:e6:aa:a9:a6:16:
                    45:71
                Exponent: 65537 (0x10001)
        X509v3 extensions:
            X509v3 Subject Key Identifier: 
                4F:C6:0C:64:01:6F:1A:E5:05:DB:3D:46:BB:7A:CB:9E:AC:4D:AC:2F
            X509v3 Authority Key Identifier: 
                keyid:19:82:4A:7B:B4:80:D2:27:9F:23:8F:AF:D5:35:5C:A6:03:D3:E7:E5

            X509v3 Basic Constraints: critical
                CA:TRUE
            X509v3 Key Usage: 
                Digital Signature, Certificate Sign, CRL Sign
    Signature Algorithm: sha256WithRSAEncryption
         97:0d:20:e9:1c:d9:2d:7f:e9:39:29:c3:b6:7a:22:df:c4:3f:
         04:16:cf:39:a2:2c:d8:c0:f9:2f:90:23:48:12:38:52:8b:c1:
         43:93:ab:87:31:24:2e:93:6c:86:ca:65:35:2c:3e:e3:c2:cf:
         b0:14:bf:d6:a5:58:4e:6b:68:6d:17:47:9e:71:4e:b5:63:b9:
         b4:36:39:15:7e:03:c9:10:15:82:01:0c:51:30:56:91:2a:7b:
         59:ff:7c:bc:c6:74:e0:12:a6:18:8a:7c:10:d3:05:db:fb:56:
         76:ab:f3:bb:92:f5:96:a6:14:22:7d:a9:2c:14:3c:aa:fc:71:
         e2:2f:58:34:3f:ea:60:0a:e7:2b:36:bb:53:5e:6a:ac:28:40:
         08:73:ec:77:18:d1:09:4a:93:77:c9:2f:fa:14:07:82:8a:c6:
         37:03:c7:db:c7:38:61:9e:8a:0e:9c:eb:7f:6a:dc:aa:56:80:
         95:3c:b2:6d:56:88:8f:2f:11:b6:51:05:a7:43:15:e6:8b:09:
         94:47:16:a0:36:a4:06:7e:f1:a3:f9:d5:ab:6b:f3:99:2e:64:
         ce:63:ae:b1:b3:15:6d:57:fc:5c:38:41:a8:35:6e:d1:cc:70:
         72:2e:5e:9b:b7:e8:9f:64:74:95:d6:db:3f:ee:d7:60:26:b7:
         35:52:4f:73
-----BEGIN CERTIFICATE-----
MIIEEzCCAvugAwIBAgIBATANBgkqhkiG9w0BAQsFADCBrDELMAkGA1UEBhMCVVMx
FjAUBgNVBAgMDU5ldyBIYW1wc2hpcmUxEjAQBgNVBAcMCUxpdHRsZXRvbjEZMBcG
A1UECgwQVGVzdCBDQSwgTGltaXRlZDEjMCEGA1UECwwaU2VydmVyIFJlc2VhcmNo
IERlcGFydG1lbnQxEDAOBgNVBAMMB1Rlc3QgQ0ExHzAdBgkqhkiG9w0BCQEWEHRl
c3RAZXhhbXBsZS5jb20wIBcNMjIwNDI0MTkyMjE0WhgPMjEyMjAzMzExOTIyMTRa
MIGIMQswCQYDVQQGEwJVUzESMBAGA1UECAwJTG91aXNpYW5hMRMwEQYDVQQHDApN
YXJrc3ZpbGxlMRkwFwYDVQQKDBBUZXN0IENBLCBMaW1pdGVkMSMwIQYDVQQLDBpT
ZXJ2ZXIgUmVzZWFyY2ggRGVwYXJ0bWVudDEQMA4GA1UEAwwHVGVzdCBDQTCCASIw
DQYJKoZIhvcNAQEBBQADggEPADCCAQoCggEBANFCdVAobkynEzZ7GSn3/cc+mKw2
g5ZjmdvNTPuqSqVI6jarcO23N6yFqPd2HDQFZ2nfP0w6yNw7mBJyyATeVNEALTW2
Py0jiJuUL6QpWljnAhlIQiUEQkqkB7sRuiJlVrk3ecJmPRmVSHBlEhKS0QKypKq7
RgNeHSFdXxru/I1s7m/wb9XOPFFWI7NbavI769ClHAU2SeWU841ftA2UytlaUal2
C0Zf26MEujXvNwhFvm5cIb4azY+rbP89+nPdnQ0HE6oxhqP+q35xlSkgNN246faJ
hDKmtR6KeX3HW4QenK97IyYqE9LnDiEQXwVxxZgMaUwyD6PqROaqqaYWRXECAwEA
AaNgMF4wHQYDVR0OBBYEFE/GDGQBbxrlBds9Rrt6y56sTawvMB8GA1UdIwQYMBaA
FBmCSnu0gNInnyOPr9U1XKYD0+flMA8GA1UdEwEB/wQFMAMBAf8wCwYDVR0PBAQD
AgGGMA0GCSqGSIb3DQEBCwUAA4IBAQCXDSDpHNktf+k5KcO2eiLfxD8EFs85oizY
wPkvkCNIEjhSi8FDk6uHMSQuk2yGymU1LD7jws+wFL/WpVhOa2htF0eecU61Y7m0
NjkVfgPJEBWCAQxRMFaRKntZ/3y8xnTgEqYYinwQ0wXb+1Z2q/O7kvWWphQifaks
FDyq/HHiL1g0P+pgCucrNrtTXmqsKEAIc+x3GNEJSpN3yS/6FAeCisY3A8fbxzhh
nooOnOt/atyqVoCVPLJtVoiPLxG2UQWnQxXmiwmURxagNqQGfvGj+dWra/OZLmTO
Y66xsxVtV/xcOEGoNW7RzHByLl6bt+ifZHSV1ts/7tdgJrc1Uk9z
-----END CERTIFICATE-----
