Certificate:
    Data:
        Version: 3 (0x2)
        Serial Number: 1 (0x1)
        Signature Algorithm: ecdsa-with-SHA256
        Issuer: C=US, ST=New Hampshire, L=Littleton, O=Test CA, Limited, OU=Server Research Department, CN=Test CA/emailAddress=test@example.com
        Validity
            Not Before: Mar 22 15:18:07 2022 GMT
            Not After : Feb 26 15:18:07 2122 GMT
        Subject: C=US, ST=Louisiana, L=Marksville, O=Test CA, Limited, OU=Server Research Department, CN=Test CA
        Subject Public Key Info:
            Public Key Algorithm: id-ecPublicKey
                Public-Key: (256 bit)
                pub:
                    04:08:93:33:ce:d7:89:2a:85:08:e5:25:fd:23:76:
                    22:e1:ef:b5:34:4d:a5:a0:9e:8d:e0:f4:1b:ac:71:
                    a9:75:21:e6:00:17:26:03:c1:aa:eb:25:09:e1:b8:
                    63:10:82:ab:56:d7:ec:34:46:e8:02:f3:79:b1:9d:
                    47:d4:70:20:a1
                ASN1 OID: prime256v1
                NIST CURVE: P-256
        X509v3 extensions:
            X509v3 Subject Key Identifier: 
                A5:77:E1:31:9C:0C:10:07:64:CC:DE:63:11:15:F0:13:6F:8B:39:6F
            X509v3 Authority Key Identifier: 
                keyid:EB:41:92:B0:66:1D:85:B2:25:C8:AE:7D:E2:7B:59:C1:03:D3:74:AE

            X509v3 Basic Constraints: critical
                CA:TRUE
            X509v3 Key Usage: 
                Digital Signature, Certificate Sign, CRL Sign
    Signature Algorithm: ecdsa-with-SHA256
         30:46:02:21:00:80:a3:1e:a6:72:4d:60:5c:aa:6f:da:9b:77:
         8b:80:63:64:cc:e5:13:1c:c7:2a:82:9c:17:2b:0c:4f:df:be:
         35:02:21:00:fa:17:47:0f:3f:8d:97:5b:4a:69:08:28:90:44:
         3a:bb:4c:dc:82:3c:01:04:43:85:0e:ac:4c:19:36:c5:c1:12
-----BEGIN CERTIFICATE-----
MIICiDCCAi2gAwIBAgIBATAKBggqhkjOPQQDAjCBrDELMAkGA1UEBhMCVVMxFjAU
BgNVBAgMDU5ldyBIYW1wc2hpcmUxEjAQBgNVBAcMCUxpdHRsZXRvbjEZMBcGA1UE
CgwQVGVzdCBDQSwgTGltaXRlZDEjMCEGA1UECwwaU2VydmVyIFJlc2VhcmNoIERl
cGFydG1lbnQxEDAOBgNVBAMMB1Rlc3QgQ0ExHzAdBgkqhkiG9w0BCQEWEHRlc3RA
ZXhhbXBsZS5jb20wIBcNMjIwMzIyMTUxODA3WhgPMjEyMjAyMjYxNTE4MDdaMIGI
MQswCQYDVQQGEwJVUzESMBAGA1UECAwJTG91aXNpYW5hMRMwEQYDVQQHDApNYXJr
c3ZpbGxlMRkwFwYDVQQKDBBUZXN0IENBLCBMaW1pdGVkMSMwIQYDVQQLDBpTZXJ2
ZXIgUmVzZWFyY2ggRGVwYXJ0bWVudDEQMA4GA1UEAwwHVGVzdCBDQTBZMBMGByqG
SM49AgEGCCqGSM49AwEHA0IABAiTM87XiSqFCOUl/SN2IuHvtTRNpaCejeD0G6xx
qXUh5gAXJgPBquslCeG4YxCCq1bX7DRG6ALzebGdR9RwIKGjYDBeMB0GA1UdDgQW
BBSld+ExnAwQB2TM3mMRFfATb4s5bzAfBgNVHSMEGDAWgBTrQZKwZh2FsiXIrn3i
e1nBA9N0rjAPBgNVHRMBAf8EBTADAQH/MAsGA1UdDwQEAwIBhjAKBggqhkjOPQQD
AgNJADBGAiEAgKMepnJNYFyqb9qbd4uAY2TM5RMcxyqCnBcrDE/fvjUCIQD6F0cP
P42XW0ppCCiQRDq7TNyCPAEEQ4UOrEwZNsXBEg==
-----END CERTIFICATE-----
