Certificate:
    Data:
        Version: 3 (0x2)
        Serial Number: 1 (0x1)
        Signature Algorithm: ecdsa-with-SHA256
        Issuer: C=US, ST=Louisiana, L=Marksville, O=Test CA, Limited, OU=Server Research Department, CN=Test CA
        Validity
            Not Before: Mar 22 15:18:58 2022 GMT
            Not After : Feb 26 15:18:58 2122 GMT
        Subject: C=US, ST=Maine, L=Macwahoc, O=Test CA, Limited, OU=Server Research Department, CN=Test CA
        Subject Public Key Info:
            Public Key Algorithm: id-ecPublicKey
                Public-Key: (256 bit)
                pub:
                    04:be:56:e5:2a:56:1b:26:35:c1:85:16:5d:18:29:
                    fb:b0:ac:c5:9d:b4:30:70:84:ba:6a:08:48:dc:dc:
                    fe:23:01:ed:f9:40:06:02:4c:63:b8:ee:53:fb:1a:
                    f2:1a:71:9d:d6:47:a0:e0:0e:67:a5:c7:8a:14:f2:
                    74:64:6d:61:be
                ASN1 OID: prime256v1
                NIST CURVE: P-256
        X509v3 extensions:
            X509v3 Subject Key Identifier: 
                27:3B:E0:59:EA:00:EA:64:16:FB:97:31:9B:37:54:61:62:8A:1E:58
            X509v3 Authority Key Identifier: 
                keyid:A5:77:E1:31:9C:0C:10:07:64:CC:DE:63:11:15:F0:13:6F:8B:39:6F

            X509v3 Basic Constraints: 
                CA:TRUE
            X509v3 Key Usage: 
                Certificate Sign, CRL Sign
    Signature Algorithm: ecdsa-with-SHA256
         30:45:02:21:00:c7:34:12:0e:b0:f6:b4:c9:81:0e:0f:41:46:
         09:54:cf:33:59:9f:fe:2a:d8:cc:33:b8:63:52:51:e8:5b:f4:
         74:02:20:5d:7f:ed:82:40:57:96:16:85:f6:2b:70:8f:68:75:
         0f:26:26:9b:4b:20:63:61:cb:24:42:d5:6e:1e:bc:78:75
-----BEGIN CERTIFICATE-----
MIICWjCCAgCgAwIBAgIBATAKBggqhkjOPQQDAjCBiDELMAkGA1UEBhMCVVMxEjAQ
BgNVBAgMCUxvdWlzaWFuYTETMBEGA1UEBwwKTWFya3N2aWxsZTEZMBcGA1UECgwQ
VGVzdCBDQSwgTGltaXRlZDEjMCEGA1UECwwaU2VydmVyIFJlc2VhcmNoIERlcGFy
dG1lbnQxEDAOBgNVBAMMB1Rlc3QgQ0EwIBcNMjIwMzIyMTUxODU4WhgPMjEyMjAy
MjYxNTE4NThaMIGCMQswCQYDVQQGEwJVUzEOMAwGA1UECAwFTWFpbmUxETAPBgNV
BAcMCE1hY3dhaG9jMRkwFwYDVQQKDBBUZXN0IENBLCBMaW1pdGVkMSMwIQYDVQQL
DBpTZXJ2ZXIgUmVzZWFyY2ggRGVwYXJ0bWVudDEQMA4GA1UEAwwHVGVzdCBDQTBZ
MBMGByqGSM49AgEGCCqGSM49AwEHA0IABL5W5SpWGyY1wYUWXRgp+7CsxZ20MHCE
umoISNzc/iMB7flABgJMY7juU/sa8hpxndZHoOAOZ6XHihTydGRtYb6jXTBbMB0G
A1UdDgQWBBQnO+BZ6gDqZBb7lzGbN1RhYooeWDAfBgNVHSMEGDAWgBSld+ExnAwQ
B2TM3mMRFfATb4s5bzAMBgNVHRMEBTADAQH/MAsGA1UdDwQEAwIBBjAKBggqhkjO
PQQDAgNIADBFAiEAxzQSDrD2tMmBDg9BRglUzzNZn/4q2MwzuGNSUehb9HQCIF1/
7YJAV5YWhfYrcI9odQ8mJptLIGNhyyRC1W4evHh1
-----END CERTIFICATE-----
