Certificate:
    Data:
        Version: 3 (0x2)
        Serial Number: 1 (0x1)
        Signature Algorithm: sha256WithRSAEncryption
        Issuer: C=US, ST=Louisiana, L=Marksville, O=Test CA, Limited, OU=Server Research Department, CN=Test CA
        Validity
            Not Before: Apr 24 19:22:16 2022 GMT
            Not After : Mar 31 19:22:16 2122 GMT
        Subject: C=US, ST=Maine, L=Macwahoc, O=Test CA, Limited, OU=Server Research Department, CN=Test CA
        Subject Public Key Info:
            Public Key Algorithm: rsaEncryption
                RSA Public-Key: (2048 bit)
                Modulus:
                    00:e6:cf:14:34:4d:71:09:0c:82:92:08:18:6b:d0:
                    ac:f5:b5:4f:69:40:99:9e:28:c1:bf:1a:dc:e7:cd:
                    73:de:d5:c1:34:44:af:b7:f1:ef:d3:ba:11:24:56:
                    04:68:e1:9e:77:f3:7b:c5:ca:22:65:06:45:1b:94:
                    95:49:27:4c:c9:6e:c5:d8:76:1d:c2:ee:ae:a5:96:
                    a1:17:75:48:5c:db:73:84:fd:4c:ec:c6:93:6d:07:
                    7f:a2:41:1b:d2:ca:91:9b:81:af:fc:17:5c:42:d5:
                    cc:c6:84:87:45:1a:ea:21:f8:d2:2e:37:11:5c:c3:
                    8f:8b:c0:66:73:65:fc:f7:3e:78:ee:02:dc:58:38:
                    71:d8:99:6d:a7:7d:57:eb:84:24:f1:e9:62:1a:97:
                    41:2d:87:7d:a0:b0:a1:78:4a:90:58:7a:01:5d:91:
                    58:f0:c6:45:73:b8:8b:51:a0:6b:8f:69:d5:24:bd:
                    da:a2:cb:33:77:9e:4c:3b:d8:b6:5a:ce:8a:bd:6f:
                    07:c8:69:78:38:c5:fe:47:f6:e5:2b:07:06:62:cd:
                    79:1b:a0:c6:c3:dc:b4:05:8a:4b:21:a6:1a:79:a1:
                    82:f0:4a:1d:ae:f1:91:ef:ae:76:4e:92:3f:ea:2f:
                    2b:1b:d6:33:c4:a2:47:67:44:a1:4a:12:a6:ba:a6:
                    4c:ad
                Exponent: 65537 (0x10001)
        X509v3 extensions:
            X509v3 Subject Key Identifier: 
                4D:46:9B:EA:CB:C0:92:B2:B3:AF:09:8E:6E:D2:70:12:9F:3B:A3:9B
            X509v3 Authority Key Identifier: 
                keyid:4F:C6:0C:64:01:6F:1A:E5:05:DB:3D:46:BB:7A:CB:9E:AC:4D:AC:2F

            X509v3 Basic Constraints: 
                CA:TRUE
            X509v3 Key Usage: 
                Digital Signature, Certificate Sign, CRL Sign
    Signature Algorithm: sha256WithRSAEncryption
         9c:d2:17:eb:03:5d:d7:2b:e7:a2:dc:56:c9:19:45:7e:d5:a7:
         37:3e:c9:c5:c9:f0:9d:b0:2d:80:11:3a:5b:2d:c5:16:bc:14:
         ac:24:71:9e:af:94:59:e6:53:a4:ac:f8:f2:9d:22:5b:1a:6d:
         5d:c1:6c:6f:41:09:4f:bb:14:7a:06:2f:b5:37:6f:fc:ab:15:
         f1:88:26:5e:e1:c4:15:af:af:a3:12:06:88:34:f3:35:af:47:
         14:59:de:4d:bb:f8:eb:30:ef:47:3e:bc:33:28:6d:d0:90:43:
         c0:43:bc:74:a3:f4:7b:03:87:81:64:f2:4d:1e:ab:4b:62:94:
         a5:fd:dc:e7:e2:84:0a:de:d5:d3:73:9d:27:c4:d9:8f:f9:61:
         5b:d8:aa:e7:ab:01:e3:39:7e:24:0e:3a:29:9d:2c:78:cb:29:
         7d:99:16:8c:17:e2:89:58:b3:01:89:d1:23:73:07:86:bc:87:
         e8:e0:eb:7f:52:06:36:ed:fa:e9:83:e5:a0:08:46:f6:9f:55:
         c0:a4:b0:35:c7:47:f4:3b:85:e0:56:db:a0:2d:f6:75:5a:82:
         3c:16:b4:a3:31:4b:11:59:99:07:9d:3c:17:24:92:51:32:ba:
         28:85:0e:9e:2c:d9:91:c4:4f:18:27:81:17:ea:d6:a3:71:5a:
         1e:6f:3c:07
-----BEGIN CERTIFICATE-----
MIID5jCCAs6gAwIBAgIBATANBgkqhkiG9w0BAQsFADCBiDELMAkGA1UEBhMCVVMx
EjAQBgNVBAgMCUxvdWlzaWFuYTETMBEGA1UEBwwKTWFya3N2aWxsZTEZMBcGA1UE
CgwQVGVzdCBDQSwgTGltaXRlZDEjMCEGA1UECwwaU2VydmVyIFJlc2VhcmNoIERl
cGFydG1lbnQxEDAOBgNVBAMMB1Rlc3QgQ0EwIBcNMjIwNDI0MTkyMjE2WhgPMjEy
MjAzMzExOTIyMTZaMIGCMQswCQYDVQQGEwJVUzEOMAwGA1UECAwFTWFpbmUxETAP
BgNVBAcMCE1hY3dhaG9jMRkwFwYDVQQKDBBUZXN0IENBLCBMaW1pdGVkMSMwIQYD
VQQLDBpTZXJ2ZXIgUmVzZWFyY2ggRGVwYXJ0bWVudDEQMA4GA1UEAwwHVGVzdCBD
QTCCASIwDQYJKoZIhvcNAQEBBQADggEPADCCAQoCggEBAObPFDRNcQkMgpIIGGvQ
rPW1T2lAmZ4owb8a3OfNc97VwTREr7fx79O6ESRWBGjhnnfze8XKImUGRRuUlUkn
TMluxdh2HcLurqWWoRd1SFzbc4T9TOzGk20Hf6JBG9LKkZuBr/wXXELVzMaEh0Ua
6iH40i43EVzDj4vAZnNl/Pc+eO4C3Fg4cdiZbad9V+uEJPHpYhqXQS2HfaCwoXhK
kFh6AV2RWPDGRXO4i1Gga49p1SS92qLLM3eeTDvYtlrOir1vB8hpeDjF/kf25SsH
BmLNeRugxsPctAWKSyGmGnmhgvBKHa7xke+udk6SP+ovKxvWM8SiR2dEoUoSprqm
TK0CAwEAAaNdMFswHQYDVR0OBBYEFE1Gm+rLwJKys68Jjm7ScBKfO6ObMB8GA1Ud
IwQYMBaAFE/GDGQBbxrlBds9Rrt6y56sTawvMAwGA1UdEwQFMAMBAf8wCwYDVR0P
BAQDAgGGMA0GCSqGSIb3DQEBCwUAA4IBAQCc0hfrA13XK+ei3FbJGUV+1ac3PsnF
yfCdsC2AETpbLcUWvBSsJHGer5RZ5lOkrPjynSJbGm1dwWxvQQlPuxR6Bi+1N2/8
qxXxiCZe4cQVr6+jEgaINPM1r0cUWd5Nu/jrMO9HPrwzKG3QkEPAQ7x0o/R7A4eB
ZPJNHqtLYpSl/dzn4oQK3tXTc50nxNmP+WFb2KrnqwHjOX4kDjopnSx4yyl9mRaM
F+KJWLMBidEjcweGvIfo4Ot/UgY27frpg+WgCEb2n1XApLA1x0f0O4XgVtugLfZ1
WoI8FrSjMUsRWZkHnTwXJJJRMroohQ6eLNmRxE8YJ4EX6tajcVoebzwH
-----END CERTIFICATE-----
