Certificate:
    Data:
        Version: 3 (0x2)
        Serial Number: 1 (0x1)
        Signature Algorithm: ecdsa-with-SHA256
        Issuer: C=US, ST=Maine, L=Macwahoc, O=Test CA, Limited, OU=Server Research Department, CN=Test CA
        Validity
            Not Before: Mar 22 15:19:11 2022 GMT
            Not After : Feb 26 15:19:11 2122 GMT
        Subject: C=US, ST=Arkansas, L=Hot Springs, O=Test CA, Limited, OU=Server Research Department, CN=Test CA
        Subject Public Key Info:
            Public Key Algorithm: id-ecPublicKey
                Public-Key: (256 bit)
                pub:
                    04:a8:57:22:b1:bc:3b:ec:50:1d:a3:86:7a:2f:41:
                    6f:e5:d3:eb:08:ca:18:24:95:63:31:e3:ab:47:c7:
                    c3:dc:e9:32:cc:9f:da:f5:3f:02:4d:d4:48:0e:fe:
                    82:73:15:4d:25:71:dc:72:38:03:55:62:e9:d9:e9:
                    ea:4a:85:8d:a4
                ASN1 OID: prime256v1
                NIST CURVE: P-256
        X509v3 extensions:
            X509v3 Subject Key Identifier: 
                BA:A4:B0:73:0F:9D:65:FA:4C:0C:4F:68:0C:5D:34:DC:35:66:13:18
            X509v3 Authority Key Identifier: 
                keyid:27:3B:E0:59:EA:00:EA:64:16:FB:97:31:9B:37:54:61:62:8A:1E:58

            X509v3 Basic Constraints: 
                CA:FALSE
            X509v3 Key Usage: 
                Digital Signature, Key Encipherment
    Signature Algorithm: ecdsa-with-SHA256
         30:45:02:21:00:a6:e4:87:36:8d:5d:69:d2:29:1f:d7:2b:c3:
         25:76:9c:4d:64:1d:a1:27:bd:d7:85:21:6b:6a:6a:f7:ee:b9:
         93:02:20:44:bd:8d:02:30:e8:1e:cd:c7:8a:66:84:c1:69:5b:
         35:76:db:09:d1:a9:98:16:fe:9c:46:38:8d:91:ae:09:af
-----BEGIN CERTIFICATE-----
MIICVzCCAf2gAwIBAgIBATAKBggqhkjOPQQDAjCBgjELMAkGA1UEBhMCVVMxDjAM
BgNVBAgMBU1haW5lMREwDwYDVQQHDAhNYWN3YWhvYzEZMBcGA1UECgwQVGVzdCBD
QSwgTGltaXRlZDEjMCEGA1UECwwaU2VydmVyIFJlc2VhcmNoIERlcGFydG1lbnQx
EDAOBgNVBAMMB1Rlc3QgQ0EwIBcNMjIwMzIyMTUxOTExWhgPMjEyMjAyMjYxNTE5
MTFaMIGIMQswCQYDVQQGEwJVUzERMA8GA1UECAwIQXJrYW5zYXMxFDASBgNVBAcM
C0hvdCBTcHJpbmdzMRkwFwYDVQQKDBBUZXN0IENBLCBMaW1pdGVkMSMwIQYDVQQL
DBpTZXJ2ZXIgUmVzZWFyY2ggRGVwYXJ0bWVudDEQMA4GA1UEAwwHVGVzdCBDQTBZ
MBMGByqGSM49AgEGCCqGSM49AwEHA0IABKhXIrG8O+xQHaOGei9Bb+XT6wjKGCSV
YzHjq0fHw9zpMsyf2vU/Ak3USA7+gnMVTSVx3HI4A1Vi6dnp6kqFjaSjWjBYMB0G
A1UdDgQWBBS6pLBzD51l+kwMT2gMXTTcNWYTGDAfBgNVHSMEGDAWgBQnO+BZ6gDq
ZBb7lzGbN1RhYooeWDAJBgNVHRMEAjAAMAsGA1UdDwQEAwIFoDAKBggqhkjOPQQD
AgNIADBFAiEApuSHNo1dadIpH9crwyV2nE1kHaEnvdeFIWtqavfuuZMCIES9jQIw
6B7Nx4pmhMFpWzV22wnRqZgW/pxGOI2Rrgmv
-----END CERTIFICATE-----
