Certificate:
    Data:
        Version: 3 (0x2)
        Serial Number: 1 (0x1)
        Signature Algorithm: ecdsa-with-SHA256
        Issuer: C=US, ST=Arkansas, L=Hot Springs, O=Test CA, Limited, OU=Server Research Department, CN=Test CA
        Validity
            Not Before: Mar 22 15:19:28 2022 GMT
            Not After : Feb 26 15:19:28 2122 GMT
        Subject: C=US, ST=Vermont, L=Vergennes, O=Test CA, Limited, OU=Server Research Department, CN=Test CA
        Subject Public Key Info:
            Public Key Algorithm: id-ecPublicKey
                Public-Key: (256 bit)
                pub:
                    04:ac:14:ca:b3:29:c0:aa:be:3d:e6:e0:27:3b:62:
                    e6:e1:1b:c3:a6:16:59:58:56:2e:32:a4:e0:05:16:
                    fe:cb:be:d8:56:a8:27:8a:85:8a:a4:af:a7:f3:89:
                    f3:f5:77:13:cc:8b:20:87:f4:7b:24:79:b7:82:8f:
                    e8:47:1b:3e:53
                ASN1 OID: prime256v1
                NIST CURVE: P-256
        X509v3 extensions:
            X509v3 Subject Key Identifier: 
                81:E4:28:A7:B1:71:86:F0:F5:4B:C4:91:45:50:3D:15:29:71:1B:3C
            X509v3 Authority Key Identifier: 
                keyid:BA:A4:B0:73:0F:9D:65:FA:4C:0C:4F:68:0C:5D:34:DC:35:66:13:18

            X509v3 Basic Constraints: 
                CA:FALSE
            X509v3 Key Usage: 
                Digital Signature, Key Encipherment
    Signature Algorithm: ecdsa-with-SHA256
         30:46:02:21:00:80:83:22:61:e3:04:82:ef:61:cb:e8:4d:90:
         8c:b6:fa:11:a4:39:a3:7c:85:85:35:6a:b7:d7:27:d0:dd:6f:
         ff:02:21:00:cb:ac:47:16:6b:7c:f4:55:58:8e:06:80:06:f0:
         49:bf:07:7a:9a:65:95:02:6c:91:df:12:09:75:a6:06:fe:c4
-----BEGIN CERTIFICATE-----
MIICWzCCAgCgAwIBAgIBATAKBggqhkjOPQQDAjCBiDELMAkGA1UEBhMCVVMxETAP
BgNVBAgMCEFya2Fuc2FzMRQwEgYDVQQHDAtIb3QgU3ByaW5nczEZMBcGA1UECgwQ
VGVzdCBDQSwgTGltaXRlZDEjMCEGA1UECwwaU2VydmVyIFJlc2VhcmNoIERlcGFy
dG1lbnQxEDAOBgNVBAMMB1Rlc3QgQ0EwIBcNMjIwMzIyMTUxOTI4WhgPMjEyMjAy
MjYxNTE5MjhaMIGFMQswCQYDVQQGEwJVUzEQMA4GA1UECAwHVmVybW9udDESMBAG
A1UEBwwJVmVyZ2VubmVzMRkwFwYDVQQKDBBUZXN0IENBLCBMaW1pdGVkMSMwIQYD
VQQLDBpTZXJ2ZXIgUmVzZWFyY2ggRGVwYXJ0bWVudDEQMA4GA1UEAwwHVGVzdCBD
QTBZMBMGByqGSM49AgEGCCqGSM49AwEHA0IABKwUyrMpwKq+PebgJzti5uEbw6YW
WVhWLjKk4AUW/su+2FaoJ4qFiqSvp/OJ8/V3E8yLIIf0eyR5t4KP6EcbPlOjWjBY
MB0GA1UdDgQWBBSB5CinsXGG8PVLxJFFUD0VKXEbPDAfBgNVHSMEGDAWgBS6pLBz
D51l+kwMT2gMXTTcNWYTGDAJBgNVHRMEAjAAMAsGA1UdDwQEAwIFoDAKBggqhkjO
PQQDAgNJADBGAiEAgIMiYeMEgu9hy+hNkIy2+hGkOaN8hYU1arfXJ9Ddb/8CIQDL
rEcWa3z0VViOBoAG8Em/B3qaZZUCbJHfEgl1pgb+xA==
-----END CERTIFICATE-----
