Certificate:
    Data:
        Version: 3 (0x2)
        Serial Number: 1 (0x1)
        Signature Algorithm: sha256WithRSAEncryption
        Issuer: C=US, ST=Arkansas, L=Hot Springs, O=Test CA, Limited, OU=Server Research Department, CN=Test CA
        Validity
            Not Before: Apr 24 19:22:18 2022 GMT
            Not After : Mar 31 19:22:18 2122 GMT
        Subject: C=US, ST=Vermont, L=Vergennes, O=Test CA, Limited, OU=Server Research Department, CN=Test CA
        Subject Public Key Info:
            Public Key Algorithm: rsaEncryption
                RSA Public-Key: (2048 bit)
                Modulus:
                    00:c3:82:8d:d8:21:97:8b:ea:d5:0d:7b:da:b7:e6:
                    88:3a:40:63:34:31:7f:df:4b:7b:e1:cc:8b:82:cd:
                    d9:94:fc:cf:c5:ed:6f:b8:51:d8:f8:b9:68:81:4a:
                    a7:3e:fa:79:62:1f:b5:7d:2f:91:dd:0b:dc:d3:f6:
                    cf:78:45:e0:69:c4:c2:4b:42:74:b1:a6:24:37:9f:
                    b7:12:cb:5b:c5:d4:23:ad:3f:f0:18:51:b5:6b:68:
                    46:53:e6:82:ed:f1:f0:5b:2b:de:73:48:9f:cc:f2:
                    23:d9:f0:0b:31:5a:a9:17:dd:0e:04:a9:a6:03:81:
                    3a:29:49:af:ea:15:30:3e:17:e6:4a:03:21:48:71:
                    23:c0:46:9b:29:8b:cd:9c:c9:48:7f:3f:12:7e:2f:
                    1c:a3:ce:29:b1:27:ba:86:be:a0:e2:5c:82:61:76:
                    ef:94:53:21:b4:08:24:2a:52:db:f2:30:c0:ad:34:
                    c5:bf:03:fe:1f:7a:9b:29:67:50:19:97:de:3a:15:
                    75:76:e9:79:65:18:5d:0b:9d:76:d3:e1:86:91:dc:
                    f0:4e:dd:11:07:9d:05:23:15:56:78:ad:54:e0:77:
                    1f:f1:68:4a:fb:a6:a0:83:46:bb:ab:88:86:e1:67:
                    b6:03:f9:6e:2b:72:6c:ef:61:49:5a:33:84:10:cd:
                    b9:91
                Exponent: 65537 (0x10001)
        X509v3 extensions:
            X509v3 Subject Key Identifier: 
                57:84:97:47:A6:87:0D:14:F8:0D:B2:40:23:A9:CE:BA:4C:8C:1E:1C
            X509v3 Authority Key Identifier: 
                keyid:F3:2A:DC:00:B6:20:53:EC:DE:30:21:DE:41:D0:9D:69:07:20:7B:36

            X509v3 Basic Constraints: 
                CA:FALSE
            X509v3 Key Usage: 
                Digital Signature, Key Encipherment
    Signature Algorithm: sha256WithRSAEncryption
         72:e4:2b:0b:79:80:a7:dc:88:6d:4e:f6:14:d0:97:d7:6c:2d:
         fe:1d:01:62:98:13:db:7a:9e:67:2f:77:72:48:d3:63:d1:82:
         f8:5b:70:47:98:6c:b6:96:93:76:7a:1a:fd:f8:8c:73:1f:cb:
         da:65:47:41:cf:7e:b3:c7:81:43:1b:e9:80:69:78:aa:8b:90:
         78:66:19:3e:29:fd:c3:0d:00:d6:d8:c0:7b:bd:a3:76:b8:5a:
         0a:d0:13:1c:0b:04:a1:7f:6a:58:ef:ef:71:53:26:a5:93:25:
         fb:d9:e0:05:a0:36:91:f0:d5:1f:f1:93:67:96:78:0f:71:47:
         de:9f:11:e7:81:6d:f3:a5:bd:36:63:f6:4e:44:de:05:7e:1c:
         b2:3a:a5:bd:aa:b4:b2:c4:47:17:6a:e5:64:f4:2c:59:d8:6e:
         f1:5f:7a:7c:da:0b:62:e6:0a:65:f0:b2:43:d2:b2:ed:ba:00:
         48:25:e8:af:fb:42:e0:50:c2:ea:e4:f5:0e:3e:1f:6c:6a:2a:
         c5:87:93:70:5b:ad:63:78:13:8c:95:63:a3:c2:65:2f:2e:e9:
         ab:91:a1:c4:0d:41:10:fc:28:fe:ff:08:a1:05:03:23:fa:96:
         a1:d4:1d:93:5b:ec:c4:f9:9d:64:a1:2d:4f:33:1f:a9:15:34:
         90:09:e2:88
-----BEGIN CERTIFICATE-----
MIID5jCCAs6gAwIBAgIBATANBgkqhkiG9w0BAQsFADCBiDELMAkGA1UEBhMCVVMx
ETAPBgNVBAgMCEFya2Fuc2FzMRQwEgYDVQQHDAtIb3QgU3ByaW5nczEZMBcGA1UE
CgwQVGVzdCBDQSwgTGltaXRlZDEjMCEGA1UECwwaU2VydmVyIFJlc2VhcmNoIERl
cGFydG1lbnQxEDAOBgNVBAMMB1Rlc3QgQ0EwIBcNMjIwNDI0MTkyMjE4WhgPMjEy
MjAzMzExOTIyMThaMIGFMQswCQYDVQQGEwJVUzEQMA4GA1UECAwHVmVybW9udDES
MBAGA1UEBwwJVmVyZ2VubmVzMRkwFwYDVQQKDBBUZXN0IENBLCBMaW1pdGVkMSMw
IQYDVQQLDBpTZXJ2ZXIgUmVzZWFyY2ggRGVwYXJ0bWVudDEQMA4GA1UEAwwHVGVz
dCBDQTCCASIwDQYJKoZIhvcNAQEBBQADggEPADCCAQoCggEBAMOCjdghl4vq1Q17
2rfmiDpAYzQxf99Le+HMi4LN2ZT8z8Xtb7hR2Pi5aIFKpz76eWIftX0vkd0L3NP2
z3hF4GnEwktCdLGmJDeftxLLW8XUI60/8BhRtWtoRlPmgu3x8Fsr3nNIn8zyI9nw
CzFaqRfdDgSppgOBOilJr+oVMD4X5koDIUhxI8BGmymLzZzJSH8/En4vHKPOKbEn
uoa+oOJcgmF275RTIbQIJCpS2/IwwK00xb8D/h96mylnUBmX3joVdXbpeWUYXQud
dtPhhpHc8E7dEQedBSMVVnitVOB3H/FoSvumoINGu6uIhuFntgP5bitybO9hSVoz
hBDNuZECAwEAAaNaMFgwHQYDVR0OBBYEFFeEl0emhw0U+A2yQCOpzrpMjB4cMB8G
A1UdIwQYMBaAFPMq3AC2IFPs3jAh3kHQnWkHIHs2MAkGA1UdEwQCMAAwCwYDVR0P
BAQDAgWgMA0GCSqGSIb3DQEBCwUAA4IBAQBy5CsLeYCn3IhtTvYU0JfXbC3+HQFi
mBPbep5nL3dySNNj0YL4W3BHmGy2lpN2ehr9+IxzH8vaZUdBz36zx4FDG+mAaXiq
i5B4Zhk+Kf3DDQDW2MB7vaN2uFoK0BMcCwShf2pY7+9xUyalkyX72eAFoDaR8NUf
8ZNnlngPcUfenxHngW3zpb02Y/ZORN4FfhyyOqW9qrSyxEcXauVk9CxZ2G7xX3p8
2gti5gpl8LJD0rLtugBIJeiv+0LgUMLq5PUOPh9sairFh5NwW61jeBOMlWOjwmUv
LumrkaHEDUEQ/Cj+/wihBQMj+pah1B2TW+zE+Z1koS1PMx+pFTSQCeKI
-----END CERTIFICATE-----
