Certificate:
    Data:
        Version: 3 (0x2)
        Serial Number: 1 (0x1)
        Signature Algorithm: sha256WithRSAEncryption
        Issuer: C=US, ST=Maine, L=Macwahoc, O=Test CA, Limited, OU=Server Research Department, CN=Test CA
        Validity
            Not Before: Apr 24 19:22:17 2022 GMT
            Not After : Mar 31 19:22:17 2122 GMT
        Subject: C=US, ST=Arkansas, L=Hot Springs, O=Test CA, Limited, OU=Server Research Department, CN=Test CA
        Subject Public Key Info:
            Public Key Algorithm: rsaEncryption
                RSA Public-Key: (2048 bit)
                Modulus:
                    00:da:dd:c1:d2:ea:c9:3c:34:31:d9:da:d1:f5:11:
                    2f:4a:11:b6:5a:e0:46:40:b0:3f:01:6e:7f:fc:d9:
                    ff:67:19:32:25:e6:aa:ea:36:5d:0f:41:2a:72:27:
                    a8:18:21:01:67:e6:18:8a:5d:b4:21:07:98:59:ad:
                    76:92:6a:6b:ae:c0:b3:80:aa:ab:16:c9:1f:88:fb:
                    88:92:26:95:97:fd:c4:c9:8b:80:27:34:35:41:97:
                    bf:da:99:1d:17:4f:86:6b:9a:da:a5:c1:e9:c3:9f:
                    11:2a:f6:55:64:83:00:ff:49:a7:1e:76:67:f3:35:
                    25:19:87:6e:0b:9d:09:8f:e3:b8:d7:9c:59:81:93:
                    11:70:08:18:b4:f2:cb:fc:de:29:83:41:2f:de:b9:
                    9e:d8:08:f1:db:4a:2e:58:ec:ef:72:93:ea:a4:bd:
                    35:22:95:c7:dc:2e:9e:a8:cf:37:97:31:7d:0d:b4:
                    4f:af:c4:97:a4:fd:60:1b:68:2e:bd:7d:c4:65:e7:
                    b7:3b:4e:59:3b:45:2d:13:cd:4c:03:dc:86:f6:0a:
                    c7:40:47:a6:a8:11:46:ff:87:a9:ce:15:0a:19:e6:
                    5a:6b:de:88:cd:c8:36:8a:64:f6:14:ea:51:7f:3f:
                    cc:b3:2c:d3:6f:25:a1:3b:20:47:c4:d7:c2:dc:0c:
                    28:a5
                Exponent: 65537 (0x10001)
        X509v3 extensions:
            X509v3 Subject Key Identifier: 
                F3:2A:DC:00:B6:20:53:EC:DE:30:21:DE:41:D0:9D:69:07:20:7B:36
            X509v3 Authority Key Identifier: 
                keyid:4D:46:9B:EA:CB:C0:92:B2:B3:AF:09:8E:6E:D2:70:12:9F:3B:A3:9B

            X509v3 Basic Constraints: 
                CA:FALSE
            X509v3 Key Usage: 
                Digital Signature, Key Encipherment
    Signature Algorithm: sha256WithRSAEncryption
         b1:32:4a:e8:69:19:ef:2c:fc:09:86:1b:01:c7:d4:5d:e1:18:
         3a:d9:b5:f9:d7:d0:e2:39:f2:03:5c:39:30:a8:9c:73:39:f4:
         6a:98:33:5c:d3:82:ef:09:8d:6a:3b:38:2d:d7:45:97:34:2e:
         da:47:f2:18:61:8f:3c:19:c0:53:81:ce:ff:d2:5f:1c:87:78:
         65:bc:f3:0c:9a:54:14:a8:15:77:f9:ea:63:3c:76:1c:27:a9:
         26:73:e9:b4:f3:be:65:1a:d9:6c:a9:c1:b0:22:b9:c8:3a:dc:
         83:20:a2:1a:22:4a:6b:98:95:05:b2:8f:3c:1b:4e:66:01:ff:
         63:64:7e:ee:82:28:34:10:05:72:bd:39:15:b2:11:b4:ce:e1:
         f4:ab:0e:e5:48:99:8a:59:56:16:d4:8c:78:d8:79:37:1b:15:
         9a:5d:dc:b7:a2:e7:2a:2d:25:cc:bb:6d:81:e0:12:76:94:1a:
         ab:f6:f1:2f:36:6f:a3:a4:62:1a:83:b7:29:4c:dd:96:b0:92:
         95:78:47:41:78:df:78:bb:7f:a3:c5:ef:5c:63:b8:81:6c:ed:
         77:21:56:3f:3f:6d:a1:a4:34:eb:8f:d7:60:c0:96:33:62:b7:
         94:81:cf:92:95:ef:4c:73:42:e1:29:e0:06:e3:c5:d4:53:42:
         13:69:82:98
-----BEGIN CERTIFICATE-----
MIID4zCCAsugAwIBAgIBATANBgkqhkiG9w0BAQsFADCBgjELMAkGA1UEBhMCVVMx
DjAMBgNVBAgMBU1haW5lMREwDwYDVQQHDAhNYWN3YWhvYzEZMBcGA1UECgwQVGVz
dCBDQSwgTGltaXRlZDEjMCEGA1UECwwaU2VydmVyIFJlc2VhcmNoIERlcGFydG1l
bnQxEDAOBgNVBAMMB1Rlc3QgQ0EwIBcNMjIwNDI0MTkyMjE3WhgPMjEyMjAzMzEx
OTIyMTdaMIGIMQswCQYDVQQGEwJVUzERMA8GA1UECAwIQXJrYW5zYXMxFDASBgNV
BAcMC0hvdCBTcHJpbmdzMRkwFwYDVQQKDBBUZXN0IENBLCBMaW1pdGVkMSMwIQYD
VQQLDBpTZXJ2ZXIgUmVzZWFyY2ggRGVwYXJ0bWVudDEQMA4GA1UEAwwHVGVzdCBD
QTCCASIwDQYJKoZIhvcNAQEBBQADggEPADCCAQoCggEBANrdwdLqyTw0Mdna0fUR
L0oRtlrgRkCwPwFuf/zZ/2cZMiXmquo2XQ9BKnInqBghAWfmGIpdtCEHmFmtdpJq
a67As4CqqxbJH4j7iJImlZf9xMmLgCc0NUGXv9qZHRdPhmua2qXB6cOfESr2VWSD
AP9Jpx52Z/M1JRmHbgudCY/juNecWYGTEXAIGLTyy/zeKYNBL965ntgI8dtKLljs
73KT6qS9NSKVx9wunqjPN5cxfQ20T6/El6T9YBtoLr19xGXntztOWTtFLRPNTAPc
hvYKx0BHpqgRRv+Hqc4VChnmWmveiM3INopk9hTqUX8/zLMs028loTsgR8TXwtwM
KKUCAwEAAaNaMFgwHQYDVR0OBBYEFPMq3AC2IFPs3jAh3kHQnWkHIHs2MB8GA1Ud
IwQYMBaAFE1Gm+rLwJKys68Jjm7ScBKfO6ObMAkGA1UdEwQCMAAwCwYDVR0PBAQD
AgWgMA0GCSqGSIb3DQEBCwUAA4IBAQCxMkroaRnvLPwJhhsBx9Rd4Rg62bX519Di
OfIDXDkwqJxzOfRqmDNc04LvCY1qOzgt10WXNC7aR/IYYY88GcBTgc7/0l8ch3hl
vPMMmlQUqBV3+epjPHYcJ6kmc+m0875lGtlsqcGwIrnIOtyDIKIaIkprmJUFso88
G05mAf9jZH7ugig0EAVyvTkVshG0zuH0qw7lSJmKWVYW1Ix42Hk3GxWaXdy3oucq
LSXMu22B4BJ2lBqr9vEvNm+jpGIag7cpTN2WsJKVeEdBeN94u3+jxe9cY7iBbO13
IVY/P22hpDTrj9dgwJYzYreUgc+Sle9Mc0LhKeAG48XUU0ITaYKY
-----END CERTIFICATE-----
