Certificate:
    Data:
        Version: 3 (0x2)
        Serial Number: 1 (0x1)
        Signature Algorithm: sha256WithRSAEncryption
        Issuer: C=US, ST=Arkansas, L=Hot Springs, O=Test CA, Limited, OU=Server Research Department, CN=Test CA
        Validity
            Not Before: Mar 22 12:00:57 2022 GMT
            Not After : Feb 26 12:00:57 2122 GMT
        Subject: C=US, ST=Vermont, L=Vergennes, O=Test CA, Limited, OU=Server Research Department, CN=Test CA
        Subject Public Key Info:
            Public Key Algorithm: rsaEncryption
                RSA Public-Key: (4096 bit)
                Modulus:
                    00:e5:12:7d:36:f1:c9:54:e4:e4:21:97:7d:d1:73:
                    2e:92:f1:41:5f:31:e3:f6:e3:67:ec:6f:82:9d:95:
                    e2:76:ab:e8:38:09:e6:4b:c7:f5:55:1a:34:f7:d7:
                    9b:8a:3b:c9:b2:17:8b:7f:88:2e:00:45:3e:6b:ce:
                    65:f8:2d:2d:c1:42:fc:a2:fc:60:5e:b5:40:74:99:
                    e4:08:7c:62:a7:7c:48:77:7e:65:e3:c7:64:5b:24:
                    19:b5:37:04:60:27:06:74:11:87:e8:fb:b6:e2:da:
                    32:07:9b:45:d9:96:10:91:c6:56:64:a1:69:cc:e4:
                    41:ef:d6:a8:11:7d:71:8c:4b:dd:72:0d:85:04:7d:
                    51:f1:0f:29:e3:da:65:ac:c1:7a:d4:ad:8d:97:4d:
                    0e:bb:5e:2b:80:a9:8b:18:4d:64:c3:f2:16:04:02:
                    e8:69:7f:33:fd:3c:c1:53:3c:ee:c6:1e:61:ab:21:
                    41:0a:b3:7e:55:e1:eb:0d:ec:92:89:34:33:3b:f3:
                    e6:34:18:4f:94:45:24:3c:04:f4:92:53:47:fc:c0:
                    64:2f:9b:0d:3d:3a:77:d6:1c:51:cb:b3:ed:cc:1d:
                    a3:45:bf:6f:f5:bd:03:79:bd:0a:81:34:9a:31:c9:
                    4c:fc:34:fb:ae:de:88:cb:bb:64:13:fb:4e:56:ba:
                    6f:52:0a:cf:b1:ce:cb:14:0a:f5:9c:e8:4d:74:ac:
                    a0:1a:a1:4e:23:59:72:88:a2:f3:01:46:9f:ab:7c:
                    36:eb:30:f1:d5:9f:0d:29:f2:e6:db:9e:86:37:75:
                    65:38:36:0d:b3:23:08:03:15:b4:f1:00:aa:dd:52:
                    bd:51:ed:cd:13:d8:3c:b1:cd:ed:73:0b:26:eb:42:
                    3b:2f:11:66:b7:d4:2c:03:03:6b:b9:3d:60:ae:66:
                    43:a4:b6:e9:d6:f8:dc:1f:a7:f1:94:9e:7f:5a:e2:
                    3d:7c:02:12:bb:c0:f2:f7:d8:d6:98:f1:0e:55:8f:
                    dc:f0:99:de:d7:e1:73:e1:09:1f:03:6f:33:0f:71:
                    ac:3e:6c:49:d2:f9:fe:02:46:a8:d8:a1:da:0a:7b:
                    3c:8e:1c:1a:20:07:87:40:b5:ec:45:a5:85:d7:4f:
                    98:3b:78:9e:e4:0d:6c:3c:1a:17:01:ef:af:3f:e6:
                    3c:51:45:c5:a8:91:89:58:3d:c1:08:ed:6a:6b:92:
                    da:89:ca:ef:82:e8:fd:fd:ec:97:67:4a:0e:0f:a6:
                    12:b3:66:3f:ff:b3:29:02:8e:7a:d3:eb:b6:8d:c2:
                    18:ae:d2:82:aa:ff:bf:ae:08:01:34:92:cb:1f:0a:
                    71:a4:12:c2:e7:82:e2:45:4a:54:62:15:9b:2e:d0:
                    2b:b3:9d
                Exponent: 65537 (0x10001)
        X509v3 extensions:
            X509v3 Subject Key Identifier: 
                52:7B:EA:A0:CD:12:1F:33:F8:E2:8D:54:16:81:53:83:48:49:6F:5D
            X509v3 Authority Key Identifier: 
                keyid:49:18:D8:D9:4E:CA:67:43:AD:29:56:26:DD:E8:80:4C:8A:C0:D1:14

            X509v3 Basic Constraints: 
                CA:FALSE
            X509v3 Key Usage: 
                Digital Signature, Key Encipherment
    Signature Algorithm: sha256WithRSAEncryption
         8c:10:cf:43:07:9d:f8:e0:3d:d2:04:e1:82:00:70:9a:60:58:
         db:3a:4d:9a:ad:cf:bb:c6:fa:a0:5b:6e:32:98:27:fe:6f:6a:
         c3:d8:75:dd:e3:bf:74:bd:91:19:f7:aa:28:db:d4:07:35:ab:
         95:30:d4:cf:53:9e:c6:f9:61:7d:3e:51:dd:15:f8:31:a3:18:
         e9:e5:94:ad:ab:76:1b:d4:39:38:36:88:57:c6:16:d0:b3:61:
         50:09:f7:4b:64:cc:bf:e6:73:e8:35:9a:82:94:67:10:26:b1:
         0a:7c:09:fa:d9:3a:5f:86:a3:0f:e7:35:65:cb:72:76:01:84:
         1b:66:62:18:42:0a:15:0b:8f:50:71:a6:bf:50:37:b2:3a:ec:
         a7:66:ed:c0:50:2b:0f:86:10:86:5d:e3:fa:06:f1:95:1a:f0:
         2c:9a:e5:75:1f:ee:6d:08:2c:b2:fd:eb:b4:11:2b:fa:8a:82:
         ca:96:b2:fd:b5:a4:02:93:1b:65:fa:71:22:30:a2:09:78:ae:
         a2:b6:fa:86:a6:41:46:f8:cd:53:62:ec:ca:07:22:0a:08:b7:
         a0:61:75:61:5b:12:28:c2:75:e8:c7:a1:f9:14:8e:54:60:ad:
         45:32:7d:af:ca:24:5e:0b:ac:8a:3c:56:11:e6:88:a9:b7:14:
         23:df:3a:7f:66:50:a8:5e:bf:71:61:8e:90:58:18:a4:e4:42:
         43:8c:6d:f4:04:cc:b9:89:d7:65:5b:6c:93:54:aa:73:e0:f1:
         25:cc:cb:25:85:01:84:0d:8c:a8:ae:9f:f8:62:bb:9d:ab:28:
         72:12:2c:e8:83:29:89:8d:7b:4e:51:6d:22:ec:25:43:63:8a:
         7f:44:41:57:fc:b3:43:2b:4a:7e:c3:05:e6:e0:66:b3:09:c1:
         03:75:64:ce:d9:86:25:24:49:72:f6:dc:ac:f3:33:72:1f:23:
         1b:2e:60:ee:18:57:7f:58:2a:45:c6:6d:cf:54:80:b2:dc:97:
         7f:6c:9a:d2:b6:fb:15:fb:f4:2c:50:d4:91:ff:bf:17:f9:74:
         70:66:21:08:6a:85:a8:36:d0:d3:ea:46:c9:62:db:7a:64:7a:
         88:06:67:01:9c:bd:2a:f4:c9:01:6d:f1:80:e9:d6:6e:15:32:
         28:71:6c:d7:36:6d:22:27:7a:dc:bb:ec:a3:bb:c4:16:e9:cb:
         63:f5:94:1b:c1:6e:0e:2a:51:a7:73:a1:ab:98:ba:e2:eb:ec:
         66:b6:1d:2f:91:6c:b0:40:0b:b1:1f:43:eb:3c:eb:55:0e:b1:
         96:1a:08:9a:13:21:10:69:72:5a:b8:a2:19:fc:5a:9f:0b:06:
         a8:89:3f:69:ef:c9:a0:0a
-----BEGIN CERTIFICATE-----
MIIF5jCCA86gAwIBAgIBATANBgkqhkiG9w0BAQsFADCBiDELMAkGA1UEBhMCVVMx
ETAPBgNVBAgMCEFya2Fuc2FzMRQwEgYDVQQHDAtIb3QgU3ByaW5nczEZMBcGA1UE
CgwQVGVzdCBDQSwgTGltaXRlZDEjMCEGA1UECwwaU2VydmVyIFJlc2VhcmNoIERl
cGFydG1lbnQxEDAOBgNVBAMMB1Rlc3QgQ0EwIBcNMjIwMzIyMTIwMDU3WhgPMjEy
MjAyMjYxMjAwNTdaMIGFMQswCQYDVQQGEwJVUzEQMA4GA1UECAwHVmVybW9udDES
MBAGA1UEBwwJVmVyZ2VubmVzMRkwFwYDVQQKDBBUZXN0IENBLCBMaW1pdGVkMSMw
IQYDVQQLDBpTZXJ2ZXIgUmVzZWFyY2ggRGVwYXJ0bWVudDEQMA4GA1UEAwwHVGVz
dCBDQTCCAiIwDQYJKoZIhvcNAQEBBQADggIPADCCAgoCggIBAOUSfTbxyVTk5CGX
fdFzLpLxQV8x4/bjZ+xvgp2V4nar6DgJ5kvH9VUaNPfXm4o7ybIXi3+ILgBFPmvO
ZfgtLcFC/KL8YF61QHSZ5Ah8Yqd8SHd+ZePHZFskGbU3BGAnBnQRh+j7tuLaMgeb
RdmWEJHGVmShaczkQe/WqBF9cYxL3XINhQR9UfEPKePaZazBetStjZdNDrteK4Cp
ixhNZMPyFgQC6Gl/M/08wVM87sYeYashQQqzflXh6w3skok0Mzvz5jQYT5RFJDwE
9JJTR/zAZC+bDT06d9YcUcuz7cwdo0W/b/W9A3m9CoE0mjHJTPw0+67eiMu7ZBP7
Tla6b1IKz7HOyxQK9ZzoTXSsoBqhTiNZcoii8wFGn6t8Nusw8dWfDSny5tuehjd1
ZTg2DbMjCAMVtPEAqt1SvVHtzRPYPLHN7XMLJutCOy8RZrfULAMDa7k9YK5mQ6S2
6db43B+n8ZSef1riPXwCErvA8vfY1pjxDlWP3PCZ3tfhc+EJHwNvMw9xrD5sSdL5
/gJGqNih2gp7PI4cGiAHh0C17EWlhddPmDt4nuQNbDwaFwHvrz/mPFFFxaiRiVg9
wQjtamuS2onK74Lo/f3sl2dKDg+mErNmP/+zKQKOetPrto3CGK7Sgqr/v64IATSS
yx8KcaQSwueC4kVKVGIVmy7QK7OdAgMBAAGjWjBYMB0GA1UdDgQWBBRSe+qgzRIf
M/jijVQWgVODSElvXTAfBgNVHSMEGDAWgBRJGNjZTspnQ60pVibd6IBMisDRFDAJ
BgNVHRMEAjAAMAsGA1UdDwQEAwIFoDANBgkqhkiG9w0BAQsFAAOCAgEAjBDPQwed
+OA90gThggBwmmBY2zpNmq3Pu8b6oFtuMpgn/m9qw9h13eO/dL2RGfeqKNvUBzWr
lTDUz1OexvlhfT5R3RX4MaMY6eWUrat2G9Q5ODaIV8YW0LNhUAn3S2TMv+Zz6DWa
gpRnECaxCnwJ+tk6X4ajD+c1ZctydgGEG2ZiGEIKFQuPUHGmv1A3sjrsp2btwFAr
D4YQhl3j+gbxlRrwLJrldR/ubQgssv3rtBEr+oqCypay/bWkApMbZfpxIjCiCXiu
orb6hqZBRvjNU2LsygciCgi3oGF1YVsSKMJ16Meh+RSOVGCtRTJ9r8okXgusijxW
EeaIqbcUI986f2ZQqF6/cWGOkFgYpORCQ4xt9ATMuYnXZVtsk1Sqc+DxJczLJYUB
hA2MqK6f+GK7nasochIs6IMpiY17TlFtIuwlQ2OKf0RBV/yzQytKfsMF5uBmswnB
A3VkztmGJSRJcvbcrPMzch8jGy5g7hhXf1gqRcZtz1SAstyXf2ya0rb7Ffv0LFDU
kf+/F/l0cGYhCGqFqDbQ0+pGyWLbemR6iAZnAZy9KvTJAW3xgOnWbhUyKHFs1zZt
Iid63Lvso7vEFunLY/WUG8FuDipRp3Ohq5i64uvsZrYdL5FssEALsR9D6zzrVQ6x
lhoImhMhEGlyWriiGfxanwsGqIk/ae/JoAo=
-----END CERTIFICATE-----
