Certificate:
    Data:
        Version: 3 (0x2)
        Serial Number: 2 (0x2)
        Signature Algorithm: sha256WithRSAEncryption
        Issuer: C=US, ST=Arkansas, L=Hot Springs, O=Test CA, Limited, OU=Server Research Department, CN=Test CA
        Validity
            Not Before: Mar 22 12:05:33 2022 GMT
            Not After : Feb 26 12:05:33 2122 GMT
        Subject: C=US, ST=Vermont, L=Vergennes, O=Test CA, Limited, OU=Server Research Department, CN=Test CA
        Subject Public Key Info:
            Public Key Algorithm: rsaEncryption
                RSA Public-Key: (4096 bit)
                Modulus:
                    00:9f:dc:8b:8c:d0:4a:02:48:0d:25:1b:2f:31:30:
                    e6:00:5e:e1:57:f0:36:d2:50:6d:e5:95:7c:21:97:
                    7b:3d:8b:55:e7:0a:37:0e:ab:73:ee:0b:48:fb:53:
                    a4:3f:fe:08:eb:5b:37:c5:f1:a8:14:dc:86:aa:9d:
                    16:3c:80:4b:17:c7:8f:c4:d8:26:29:96:24:72:b1:
                    56:60:6b:f3:2d:ef:1a:9d:cc:a0:0e:91:21:3c:11:
                    29:f8:92:b9:f0:38:81:e5:4a:78:d9:bf:eb:ea:66:
                    52:79:2b:83:a1:39:b3:db:84:5c:60:4f:32:b3:1d:
                    27:6b:72:2f:f4:89:bd:a6:e5:63:be:15:c3:02:34:
                    29:77:88:88:d7:9a:23:3e:04:13:70:46:a5:10:6f:
                    a4:57:f2:c0:d7:3d:85:63:b2:6a:5f:95:13:18:c5:
                    e6:eb:3c:4a:21:34:27:d9:90:72:62:cb:50:6d:29:
                    66:95:45:4f:44:a7:6b:ae:59:12:67:c8:2e:60:ed:
                    e7:65:58:89:73:0f:1c:29:b5:70:21:92:c9:0f:a1:
                    5f:1b:aa:f0:6d:86:ed:d4:dc:4b:1d:41:51:91:e5:
                    d7:91:86:8e:e0:a6:9f:67:bf:bc:0f:91:dc:03:64:
                    0e:f8:14:4c:cc:9b:70:b4:4a:80:68:c6:a3:83:78:
                    fc:de:e4:cb:8d:64:af:67:b8:7a:5d:27:9e:70:cc:
                    e9:2a:09:d6:03:a8:06:2c:e0:de:e3:86:51:cd:22:
                    bb:4e:19:5b:04:a5:32:56:d1:48:e1:5a:56:43:a9:
                    7a:e6:87:e2:e7:6e:e4:96:57:8a:f5:9b:9d:56:01:
                    6d:79:a7:6e:25:01:68:09:9d:35:b3:91:bc:8d:62:
                    2f:76:d4:a2:a2:89:7a:92:01:b7:9b:fc:b3:6e:89:
                    81:55:f4:50:52:0e:48:4f:06:51:99:fa:b8:72:21:
                    b7:8e:1f:2b:1b:99:93:f4:7d:cf:cb:17:02:4a:e4:
                    5a:1a:c8:13:40:08:80:56:13:84:ea:59:7b:cb:78:
                    18:64:41:d1:cb:68:78:75:2e:e3:5f:51:3b:47:e3:
                    f9:77:e9:13:fc:d2:20:e7:8a:7c:53:3d:b8:fd:e2:
                    ab:7a:17:2a:ee:d3:b3:9e:28:52:1f:3e:58:2b:1c:
                    a6:1f:7b:c1:47:b6:32:49:7a:43:4a:91:51:bf:b5:
                    10:78:45:61:d0:ce:10:b4:8f:8e:ba:74:21:9c:79:
                    0e:a8:7e:38:51:52:cd:bf:9d:aa:09:f8:2e:b5:71:
                    26:55:59:10:ab:fc:bb:6d:a7:20:0d:0a:1f:17:dc:
                    82:2c:12:95:ea:e6:a1:4e:e5:df:ee:d9:a5:0d:16:
                    b8:b6:5f
                Exponent: 65537 (0x10001)
        X509v3 extensions:
            X509v3 Subject Key Identifier: 
                C6:41:0A:88:35:90:34:25:E9:1B:E0:50:07:83:9C:CD:04:C2:AF:2A
            X509v3 Authority Key Identifier: 
                keyid:A8:61:F6:C1:C7:69:5B:C3:29:58:D3:BD:FE:20:D6:5A:C2:2B:2D:50

            X509v3 Basic Constraints: 
                CA:FALSE
            X509v3 Key Usage: 
                Digital Signature, Key Encipherment
    Signature Algorithm: sha256WithRSAEncryption
         70:b1:51:78:ec:f5:43:fd:79:1d:8b:34:f4:ae:35:a2:73:b9:
         1c:25:8b:a1:fa:12:b7:6d:4a:a0:a3:f1:99:9e:75:cf:d0:73:
         f8:87:94:64:8f:4f:c0:0f:fa:60:18:ee:07:89:f8:ee:24:f6:
         91:43:24:a4:97:f8:42:17:0b:67:ea:e6:31:dd:5b:7a:2d:67:
         9c:65:2b:ea:eb:91:ba:33:fd:65:29:0a:db:03:54:ad:fd:2e:
         76:03:3c:ee:49:30:d1:38:5c:23:b5:99:a1:73:e3:8d:66:b9:
         54:40:74:bd:b4:97:01:d4:21:51:46:18:42:ba:b9:14:02:de:
         b5:8e:7c:5d:af:b1:d9:ac:c9:58:b6:1a:7e:69:9c:68:f0:3d:
         4c:a7:f1:f4:7d:25:80:c6:b1:e5:08:0c:0c:51:08:49:e6:19:
         f4:83:a5:ae:f9:02:d9:24:2c:3d:81:bd:c7:7d:73:7a:6d:d3:
         41:e9:61:c4:be:7b:99:20:85:2f:fb:34:1d:3d:fa:9d:a4:22:
         77:73:d9:53:93:d2:b2:27:3a:04:5a:75:c8:51:13:e6:83:c1:
         88:f2:d0:b5:e9:bf:e8:41:4f:12:80:25:57:52:03:54:96:27:
         29:37:e6:ce:82:bd:bc:81:08:ad:05:7c:f7:e1:75:b6:5e:4d:
         e1:d6:da:7c:c7:fa:a0:e8:ef:b9:2d:0d:50:19:6b:36:66:c1:
         8e:cf:68:e7:ff:b5:29:e5:4f:21:74:59:ea:6a:dd:e2:f0:87:
         20:95:f6:fb:34:e2:e3:d9:a1:d3:98:ab:ba:32:5d:a5:23:48:
         83:b0:14:d3:d6:fe:1a:ba:99:e9:5c:9a:04:9c:4b:f2:06:91:
         3f:51:c1:c1:f0:05:32:81:d7:9b:34:04:b3:ea:5c:17:33:b7:
         93:60:5b:40:d7:f8:50:a4:5c:bf:00:5a:74:34:e0:27:4c:b7:
         71:8e:f5:c7:2f:27:51:b5:4c:0b:77:e0:1a:84:1a:d0:56:80:
         a4:a9:b4:4f:6c:c3:4b:3d:1e:f5:1f:a5:9c:16:30:f9:2f:e2:
         79:17:cc:b3:0f:2c:e2:25:b5:a1:69:8d:c8:9e:1f:e4:2b:38:
         6c:58:66:03:10:dc:c3:a9:ae:1a:2e:c5:fe:68:f3:23:08:65:
         e7:20:6e:f6:20:d3:e7:77:df:fb:29:0c:4d:f7:38:09:2d:d4:
         a8:a0:47:9c:b0:b6:44:e6:0a:33:b0:fc:3e:9c:40:07:79:4a:
         7d:7c:ac:42:a5:f1:75:c8:c7:43:bd:99:68:52:bc:38:dc:3b:
         89:22:a7:60:26:22:81:19:10:cb:ae:39:0e:e5:5f:e1:df:4a:
         18:f9:d9:d1:61:cf:87:05
-----BEGIN CERTIFICATE-----
MIIF5jCCA86gAwIBAgIBAjANBgkqhkiG9w0BAQsFADCBiDELMAkGA1UEBhMCVVMx
ETAPBgNVBAgMCEFya2Fuc2FzMRQwEgYDVQQHDAtIb3QgU3ByaW5nczEZMBcGA1UE
CgwQVGVzdCBDQSwgTGltaXRlZDEjMCEGA1UECwwaU2VydmVyIFJlc2VhcmNoIERl
cGFydG1lbnQxEDAOBgNVBAMMB1Rlc3QgQ0EwIBcNMjIwMzIyMTIwNTMzWhgPMjEy
MjAyMjYxMjA1MzNaMIGFMQswCQYDVQQGEwJVUzEQMA4GA1UECAwHVmVybW9udDES
MBAGA1UEBwwJVmVyZ2VubmVzMRkwFwYDVQQKDBBUZXN0IENBLCBMaW1pdGVkMSMw
IQYDVQQLDBpTZXJ2ZXIgUmVzZWFyY2ggRGVwYXJ0bWVudDEQMA4GA1UEAwwHVGVz
dCBDQTCCAiIwDQYJKoZIhvcNAQEBBQADggIPADCCAgoCggIBAJ/ci4zQSgJIDSUb
LzEw5gBe4VfwNtJQbeWVfCGXez2LVecKNw6rc+4LSPtTpD/+COtbN8XxqBTchqqd
FjyASxfHj8TYJimWJHKxVmBr8y3vGp3MoA6RITwRKfiSufA4geVKeNm/6+pmUnkr
g6E5s9uEXGBPMrMdJ2tyL/SJvablY74VwwI0KXeIiNeaIz4EE3BGpRBvpFfywNc9
hWOyal+VExjF5us8SiE0J9mQcmLLUG0pZpVFT0Sna65ZEmfILmDt52VYiXMPHCm1
cCGSyQ+hXxuq8G2G7dTcSx1BUZHl15GGjuCmn2e/vA+R3ANkDvgUTMybcLRKgGjG
o4N4/N7ky41kr2e4el0nnnDM6SoJ1gOoBizg3uOGUc0iu04ZWwSlMlbRSOFaVkOp
euaH4udu5JZXivWbnVYBbXmnbiUBaAmdNbORvI1iL3bUoqKJepIBt5v8s26JgVX0
UFIOSE8GUZn6uHIht44fKxuZk/R9z8sXAkrkWhrIE0AIgFYThOpZe8t4GGRB0cto
eHUu419RO0fj+XfpE/zSIOeKfFM9uP3iq3oXKu7Ts54oUh8+WCscph97wUe2Mkl6
Q0qRUb+1EHhFYdDOELSPjrp0IZx5Dqh+OFFSzb+dqgn4LrVxJlVZEKv8u22nIA0K
HxfcgiwSlermoU7l3+7ZpQ0WuLZfAgMBAAGjWjBYMB0GA1UdDgQWBBTGQQqINZA0
Jekb4FAHg5zNBMKvKjAfBgNVHSMEGDAWgBSoYfbBx2lbwylY073+INZawistUDAJ
BgNVHRMEAjAAMAsGA1UdDwQEAwIFoDANBgkqhkiG9w0BAQsFAAOCAgEAcLFReOz1
Q/15HYs09K41onO5HCWLofoSt21KoKPxmZ51z9Bz+IeUZI9PwA/6YBjuB4n47iT2
kUMkpJf4QhcLZ+rmMd1bei1nnGUr6uuRujP9ZSkK2wNUrf0udgM87kkw0ThcI7WZ
oXPjjWa5VEB0vbSXAdQhUUYYQrq5FALetY58Xa+x2azJWLYafmmcaPA9TKfx9H0l
gMax5QgMDFEISeYZ9IOlrvkC2SQsPYG9x31zem3TQelhxL57mSCFL/s0HT36naQi
d3PZU5PSsic6BFp1yFET5oPBiPLQtem/6EFPEoAlV1IDVJYnKTfmzoK9vIEIrQV8
9+F1tl5N4dbafMf6oOjvuS0NUBlrNmbBjs9o5/+1KeVPIXRZ6mrd4vCHIJX2+zTi
49mh05irujJdpSNIg7AU09b+GrqZ6VyaBJxL8gaRP1HBwfAFMoHXmzQEs+pcFzO3
k2BbQNf4UKRcvwBadDTgJ0y3cY71xy8nUbVMC3fgGoQa0FaApKm0T2zDSz0e9R+l
nBYw+S/ieRfMsw8s4iW1oWmNyJ4f5Cs4bFhmAxDcw6muGi7F/mjzIwhl5yBu9iDT
53ff+ykMTfc4CS3UqKBHnLC2ROYKM7D8PpxAB3lKfXysQqXxdcjHQ72ZaFK8ONw7
iSKnYCYigRkQy645DuVf4d9KGPnZ0WHPhwU=
-----END CERTIFICATE-----
