Certificate:
    Data:
        Version: 3 (0x2)
        Serial Number: 3 (0x3)
        Signature Algorithm: sha256WithRSAEncryption
        Issuer: C=US, ST=Maine, L=Macwahoc, O=Test CA, Limited, OU=Server Research Department, CN=Test CA
        Validity
            Not Before: Mar 22 12:05:21 2022 GMT
            Not After : Feb 26 12:05:21 2122 GMT
        Subject: C=US, ST=Arkansas, L=Hot Springs, O=Test CA, Limited, OU=Server Research Department, CN=Test CA
        Subject Public Key Info:
            Public Key Algorithm: rsaEncryption
                RSA Public-Key: (4096 bit)
                Modulus:
                    00:bd:92:0f:4e:19:4d:d1:2e:23:5d:1d:15:72:34:
                    03:a8:0a:21:34:04:73:13:d5:cd:ac:03:6f:5d:3d:
                    c6:09:e1:0e:90:89:c6:21:2f:1b:2f:e1:b3:a6:7e:
                    c0:50:0b:f2:2d:11:5d:61:82:a9:73:7a:69:61:ad:
                    72:77:97:4b:0b:cc:fe:a7:12:e2:cd:16:2b:dc:cd:
                    22:9b:4b:91:c2:fc:21:c5:e1:b2:49:9d:81:c0:98:
                    f2:29:00:36:82:38:42:ca:2e:d7:e8:23:cf:e3:9b:
                    6f:9c:82:5f:ff:10:b1:88:8a:f2:88:e3:5a:6c:00:
                    72:0a:a4:3f:e1:e6:e9:fa:b6:e6:da:b3:15:ed:50:
                    fd:68:aa:91:38:a7:ae:63:79:f9:34:09:60:22:fb:
                    00:54:c9:21:45:30:2c:70:c0:41:1c:89:6c:45:7f:
                    b4:b6:b0:7c:f1:00:9e:e2:30:fb:3c:fd:40:cc:15:
                    4d:bc:15:14:b8:00:28:80:3f:95:44:14:ea:bd:26:
                    a3:e9:5f:e5:31:3e:52:03:32:37:84:8f:97:cf:fc:
                    f7:6e:87:b1:07:a3:96:6d:eb:58:b2:e4:3f:7b:64:
                    92:93:8c:a3:bb:6d:59:9a:7c:d0:49:51:9d:31:15:
                    12:6b:30:53:b2:42:41:5a:02:2d:af:63:da:a7:3e:
                    84:e9:ff:3e:19:44:c7:d2:6e:8c:ac:d8:4b:58:27:
                    55:4f:40:4a:d9:05:4c:45:16:76:f6:d0:45:02:7d:
                    e3:13:1c:82:03:1f:d0:8b:83:e2:99:d4:14:76:b2:
                    e8:38:01:47:27:7f:b6:51:59:07:83:cb:a5:43:4b:
                    bc:2f:8d:b8:7f:61:0d:e6:19:d3:9b:21:1e:6f:2b:
                    44:72:d9:c1:a5:87:5c:5f:e0:15:28:37:2c:b5:0b:
                    3f:02:a3:23:be:27:b4:97:8f:72:0c:cc:72:e3:1e:
                    54:11:4b:a4:da:5e:46:39:f1:24:8e:b9:de:78:16:
                    8f:5d:b6:30:95:a1:63:1b:c6:9e:eb:7d:2f:65:06:
                    e1:32:3c:97:f0:07:30:f9:32:09:d1:e7:a2:b8:e5:
                    fd:4f:ac:22:ae:e2:3e:fb:79:99:f6:fb:aa:09:d3:
                    6a:d6:fd:e7:a2:cf:95:92:74:77:d5:2e:40:0a:94:
                    c3:50:46:65:ab:4f:74:3e:5e:89:b0:d7:85:d1:d4:
                    d1:70:0c:b0:b9:b1:c7:83:19:29:6e:10:0c:6a:a9:
                    7b:fa:c6:c0:ed:6d:80:10:2b:b2:f7:94:de:f5:b6:
                    9e:1e:a0:32:79:78:5a:d7:69:89:bc:b3:20:c6:71:
                    ab:7f:48:46:58:08:f7:d2:a8:e7:73:42:03:7f:9e:
                    f2:2b:cf
                Exponent: 65537 (0x10001)
        X509v3 extensions:
            X509v3 Subject Key Identifier: 
                A8:61:F6:C1:C7:69:5B:C3:29:58:D3:BD:FE:20:D6:5A:C2:2B:2D:50
            X509v3 Authority Key Identifier: 
                keyid:69:21:62:47:BF:AF:E4:76:E4:82:5A:E5:DC:F4:28:BF:56:CA:B8:15

            X509v3 Basic Constraints: 
                CA:FALSE
            X509v3 Key Usage: 
                Digital Signature, Key Encipherment
    Signature Algorithm: sha256WithRSAEncryption
         ae:95:3f:73:c5:a8:22:ce:72:b4:50:ee:8f:b4:31:7f:05:36:
         74:e1:17:55:ec:3d:2c:91:e4:a8:78:72:f6:fe:26:02:60:ad:
         e0:73:da:f1:78:30:8e:02:49:27:df:7b:27:82:32:aa:ac:7d:
         ab:3b:b3:14:99:15:62:e0:60:74:18:01:c2:66:ba:90:30:e9:
         59:6d:f5:4a:8b:52:39:02:61:85:06:da:25:3f:a2:47:cb:80:
         44:a5:ad:6b:da:ae:7a:17:b0:5f:56:d3:65:44:f5:fc:99:e4:
         f0:6e:c2:73:18:3c:0e:31:58:a3:79:26:fd:33:ed:14:36:50:
         5e:78:91:f2:49:65:20:82:61:d9:16:2c:87:6e:dc:ec:9f:71:
         5e:48:30:f9:92:02:51:4b:fc:57:a3:90:cf:87:48:02:2b:82:
         cb:e3:ba:59:50:b1:4a:e6:2e:6d:23:a7:8d:c7:10:4c:d5:0b:
         aa:f6:ab:4c:e2:54:a1:44:d6:7e:30:d0:88:d5:49:d7:c2:46:
         79:d8:4e:61:c5:b2:d0:dc:45:28:3c:a2:a9:7f:25:38:b2:99:
         33:53:9e:9b:97:b1:f3:b2:f6:2e:27:ee:16:3d:c3:0a:b8:16:
         bf:15:38:91:a5:a2:0b:0c:36:5e:f9:5c:ae:ac:45:66:8a:82:
         69:95:71:08:b0:96:04:51:81:2d:8e:14:5a:04:44:43:bc:c1:
         20:39:43:80:78:ed:83:ec:97:9e:a4:91:d8:52:ee:46:3f:78:
         e8:15:d5:50:56:0d:d9:97:f0:e3:91:61:0c:91:f4:40:f3:d0:
         78:81:47:63:4c:51:79:ee:0b:3b:d3:d9:bd:94:f6:28:f5:90:
         68:ef:38:f5:59:b5:57:fd:13:a9:30:d9:2d:78:2a:a0:4f:dd:
         fd:50:dc:bf:81:12:22:4b:0f:77:47:15:2c:f1:bf:93:76:8c:
         b0:1f:d5:2e:32:5a:e1:80:04:ad:58:05:10:18:87:58:23:dc:
         15:12:c5:b1:7c:85:26:96:aa:da:c9:cf:b0:b1:2f:c0:34:02:
         c2:38:f8:0a:a9:7d:ea:3a:b4:76:c0:fe:15:dc:5e:63:47:38:
         bd:ef:5b:00:7a:fc:2b:cb:33:70:cb:ad:7e:30:bc:57:ab:d5:
         8b:d7:84:ac:67:41:55:74:1f:ce:7e:d1:c5:c7:99:ab:4b:78:
         6a:b6:28:bf:72:0d:7b:c3:fc:94:d6:b6:8e:00:b8:70:2e:bc:
         4d:16:1d:f6:09:3d:c9:10:8b:ca:ed:35:3f:f1:82:96:70:82:
         b1:45:08:43:bb:2b:77:a8:40:49:af:f3:74:45:09:b7:10:79:
         f9:9b:f1:40:c6:6f:6c:ab
-----BEGIN CERTIFICATE-----
MIIF4zCCA8ugAwIBAgIBAzANBgkqhkiG9w0BAQsFADCBgjELMAkGA1UEBhMCVVMx
DjAMBgNVBAgMBU1haW5lMREwDwYDVQQHDAhNYWN3YWhvYzEZMBcGA1UECgwQVGVz
dCBDQSwgTGltaXRlZDEjMCEGA1UECwwaU2VydmVyIFJlc2VhcmNoIERlcGFydG1l
bnQxEDAOBgNVBAMMB1Rlc3QgQ0EwIBcNMjIwMzIyMTIwNTIxWhgPMjEyMjAyMjYx
MjA1MjFaMIGIMQswCQYDVQQGEwJVUzERMA8GA1UECAwIQXJrYW5zYXMxFDASBgNV
BAcMC0hvdCBTcHJpbmdzMRkwFwYDVQQKDBBUZXN0IENBLCBMaW1pdGVkMSMwIQYD
VQQLDBpTZXJ2ZXIgUmVzZWFyY2ggRGVwYXJ0bWVudDEQMA4GA1UEAwwHVGVzdCBD
QTCCAiIwDQYJKoZIhvcNAQEBBQADggIPADCCAgoCggIBAL2SD04ZTdEuI10dFXI0
A6gKITQEcxPVzawDb109xgnhDpCJxiEvGy/hs6Z+wFAL8i0RXWGCqXN6aWGtcneX
SwvM/qcS4s0WK9zNIptLkcL8IcXhskmdgcCY8ikANoI4Qsou1+gjz+Obb5yCX/8Q
sYiK8ojjWmwAcgqkP+Hm6fq25tqzFe1Q/WiqkTinrmN5+TQJYCL7AFTJIUUwLHDA
QRyJbEV/tLawfPEAnuIw+zz9QMwVTbwVFLgAKIA/lUQU6r0mo+lf5TE+UgMyN4SP
l8/8926HsQejlm3rWLLkP3tkkpOMo7ttWZp80ElRnTEVEmswU7JCQVoCLa9j2qc+
hOn/PhlEx9JujKzYS1gnVU9AStkFTEUWdvbQRQJ94xMcggMf0IuD4pnUFHay6DgB
Ryd/tlFZB4PLpUNLvC+NuH9hDeYZ05shHm8rRHLZwaWHXF/gFSg3LLULPwKjI74n
tJePcgzMcuMeVBFLpNpeRjnxJI653ngWj122MJWhYxvGnut9L2UG4TI8l/AHMPky
CdHnorjl/U+sIq7iPvt5mfb7qgnTatb956LPlZJ0d9UuQAqUw1BGZatPdD5eibDX
hdHU0XAMsLmxx4MZKW4QDGqpe/rGwO1tgBArsveU3vW2nh6gMnl4WtdpibyzIMZx
q39IRlgI99Ko53NCA3+e8ivPAgMBAAGjWjBYMB0GA1UdDgQWBBSoYfbBx2lbwylY
073+INZawistUDAfBgNVHSMEGDAWgBRpIWJHv6/kduSCWuXc9Ci/Vsq4FTAJBgNV
HRMEAjAAMAsGA1UdDwQEAwIFoDANBgkqhkiG9w0BAQsFAAOCAgEArpU/c8WoIs5y
tFDuj7QxfwU2dOEXVew9LJHkqHhy9v4mAmCt4HPa8XgwjgJJJ997J4Iyqqx9qzuz
FJkVYuBgdBgBwma6kDDpWW31SotSOQJhhQbaJT+iR8uARKWta9quehewX1bTZUT1
/Jnk8G7Ccxg8DjFYo3km/TPtFDZQXniR8kllIIJh2RYsh27c7J9xXkgw+ZICUUv8
V6OQz4dIAiuCy+O6WVCxSuYubSOnjccQTNULqvarTOJUoUTWfjDQiNVJ18JGedhO
YcWy0NxFKDyiqX8lOLKZM1Oem5ex87L2LifuFj3DCrgWvxU4kaWiCww2XvlcrqxF
ZoqCaZVxCLCWBFGBLY4UWgREQ7zBIDlDgHjtg+yXnqSR2FLuRj946BXVUFYN2Zfw
45FhDJH0QPPQeIFHY0xRee4LO9PZvZT2KPWQaO849Vm1V/0TqTDZLXgqoE/d/VDc
v4ESIksPd0cVLPG/k3aMsB/VLjJa4YAErVgFEBiHWCPcFRLFsXyFJpaq2snPsLEv
wDQCwjj4Cql96jq0dsD+FdxeY0c4ve9bAHr8K8szcMutfjC8V6vVi9eErGdBVXQf
zn7RxceZq0t4arYov3INe8P8lNa2jgC4cC68TRYd9gk9yRCLyu01P/GClnCCsUUI
Q7srd6hASa/zdEUJtxB5+ZvxQMZvbKs=
-----END CERTIFICATE-----
