Certificate:
    Data:
        Version: 3 (0x2)
        Serial Number: 2 (0x2)
        Signature Algorithm: sha256WithRSAEncryption
        Issuer: C=US, ST=New Hampshire, L=Littleton, O=Test CA, Limited, OU=Server Research Department, CN=Test CA/emailAddress=test@example.com
        Validity
            Not Before: Mar 21 23:47:05 2022 GMT
            Not After : Feb 25 23:47:05 2122 GMT
        Subject: C=US, ST=Louisiana, L=Marksville, O=Test CA, Limited, OU=Server Research Department, CN=Test CA
        Subject Public Key Info:
            Public Key Algorithm: rsaEncryption
                RSA Public-Key: (4096 bit)
                Modulus:
                    00:d7:2f:9d:83:b0:d7:2d:d6:8a:cc:2e:1f:4a:5a:
                    c3:8c:54:d2:d2:7f:f9:80:d9:b5:0b:8b:ac:bd:67:
                    15:54:c0:38:59:9e:38:bb:17:2e:cf:3e:3a:d9:aa:
                    b0:7b:06:7a:06:af:78:b7:8e:f7:e8:97:87:a9:bb:
                    82:78:06:e1:f2:6b:f7:e2:95:76:5f:52:58:6e:77:
                    5d:52:21:b0:9b:d5:ea:41:4b:65:9f:35:e9:c4:10:
                    ee:06:a9:de:05:3e:96:00:af:3f:33:fa:30:6d:2a:
                    ed:97:19:7e:dd:17:e5:b2:04:3c:00:8d:06:c0:2f:
                    46:cf:31:bd:61:02:cb:37:ce:ef:a9:84:1e:07:e7:
                    96:86:3c:17:16:79:13:4e:ce:9b:72:ea:3b:48:f0:
                    a8:cf:72:a3:eb:de:20:1c:1a:c4:89:4c:49:c5:f5:
                    e5:a9:00:65:83:8d:ba:fe:25:ec:47:83:9f:38:1a:
                    ec:f5:ab:4c:40:a4:a9:93:53:e5:e0:23:71:df:0e:
                    94:9e:84:f7:ec:43:c9:b4:0a:05:c6:fc:89:72:c1:
                    2f:d5:4a:d2:ee:10:53:31:21:bf:fa:1f:0a:fd:ee:
                    41:de:76:8b:e3:3e:f2:40:ec:59:75:d8:fd:f7:3d:
                    35:26:2a:87:db:98:7d:93:9f:af:fc:31:f9:42:af:
                    71:45:07:ed:a3:35:ba:79:c4:37:bf:7c:e5:e2:a8:
                    77:3d:2b:e2:a2:60:ec:08:14:b8:79:32:7d:9a:db:
                    6f:17:15:ff:84:8b:b4:f8:78:6d:64:3e:58:60:5a:
                    05:fa:60:ba:ef:02:a9:2f:71:93:6a:35:d2:27:40:
                    a1:a0:d3:6d:4a:d3:45:62:d1:9b:c4:89:48:43:89:
                    18:98:e1:49:4b:1e:cb:78:d5:a5:9d:b4:c5:12:c3:
                    98:4f:19:5a:6b:85:fb:64:5d:9f:1c:53:4d:ee:4a:
                    aa:ea:6f:99:a2:bf:1c:60:c5:49:6b:c8:a5:8c:2a:
                    af:ed:c2:14:62:5a:57:39:9c:89:bc:13:2c:cf:e2:
                    3a:81:a1:19:ae:9d:ff:6d:4b:16:9c:55:d0:ca:c9:
                    f9:b4:29:07:0d:79:22:91:d2:ef:b6:16:39:6c:f1:
                    df:57:7e:9a:b1:2e:bb:3b:43:db:20:7a:70:b6:23:
                    ac:96:53:fc:ec:1b:d3:1f:6a:05:e2:f9:99:d0:80:
                    00:7f:bf:52:08:43:1e:3b:d4:a7:c7:66:84:d0:7c:
                    20:c6:2f:3c:0a:20:ad:32:45:2f:88:4b:87:df:e8:
                    6c:e6:33:89:29:48:5c:68:c8:81:3f:03:f8:fa:1c:
                    45:f6:e5:26:26:ab:ec:7f:e0:ec:34:cd:16:00:40:
                    86:7f:af
                Exponent: 65537 (0x10001)
        X509v3 extensions:
            X509v3 Subject Key Identifier: 
                8C:D6:78:29:E8:D3:C5:E7:86:14:D4:B6:6C:15:2F:3E:A9:AA:5C:7E
            X509v3 Authority Key Identifier: 
                keyid:48:15:A8:B0:AF:A3:9C:41:A0:5E:99:C9:14:1D:27:A9:B6:D3:29:F7

            X509v3 Basic Constraints: critical
                CA:TRUE
            X509v3 Key Usage: 
                Certificate Sign, CRL Sign
    Signature Algorithm: sha256WithRSAEncryption
         38:cd:62:23:74:f1:86:c6:92:3b:d8:32:b6:ba:0b:59:a4:74:
         43:cf:ec:a3:6c:16:95:73:a0:c3:46:31:05:24:37:9a:0d:a0:
         eb:94:81:8d:90:d1:07:66:24:a5:bd:93:01:09:54:b1:30:2a:
         24:ec:a5:2b:9a:3d:6a:f4:2b:a1:75:b0:f3:ac:ed:80:58:1c:
         b8:83:a5:30:86:a3:94:a6:1b:51:38:b1:27:b3:6d:33:f4:2b:
         39:c9:12:65:c2:1d:85:51:6b:e0:43:39:e7:db:d1:49:9b:7a:
         96:a1:a4:15:74:d6:99:03:33:a9:59:e2:cb:88:bb:f3:4f:0c:
         3c:31:e3:29:41:d6:85:5a:fc:47:4a:67:cb:a7:d4:3d:f8:d1:
         23:f5:1f:80:31:82:fa:22:4d:81:87:97:1b:55:d3:9a:0a:49:
         37:a4:ad:d8:38:5f:c2:19:36:dc:43:6a:6a:a9:d0:bd:8b:3c:
         09:07:3b:72:2d:14:db:38:c8:36:ee:7c:60:7a:d1:2f:c2:de:
         1b:26:a0:45:7f:e9:85:a0:62:ce:fc:f1:10:f7:40:fa:d5:74:
         8e:43:c2:68:ac:60:54:bb:05:ef:2d:68:f3:23:cd:a5:7e:af:
         00:fb:fe:f0:c2:10:ee:3b:43:01:d0:3f:83:50:0a:a8:8a:9f:
         d0:cd:e6:68:75:5a:04:6f:1f:53:41:a9:96:97:61:1b:61:00:
         c7:e9:ba:b3:8f:26:f7:a9:23:f6:e2:2c:84:9f:9b:0b:87:81:
         c2:39:c7:b2:0c:dc:cc:41:74:99:94:c6:9f:92:79:f0:cb:e1:
         4e:08:4b:94:65:bc:ee:12:8d:34:49:3e:e5:71:cf:3a:ba:d5:
         4a:9d:99:02:d0:10:87:c1:61:3e:1c:6c:c3:1e:59:33:45:01:
         ba:08:2a:d4:60:4d:1e:8f:6b:3e:62:c9:19:db:ba:eb:c8:76:
         d8:0a:98:6a:27:bb:71:bd:7e:31:d3:fd:15:ce:38:be:ba:7d:
         91:d0:fb:02:6e:41:22:7f:e0:e2:41:d8:65:91:de:6d:51:68:
         ff:e9:81:d7:8e:26:2c:79:02:35:41:49:52:cf:17:01:bd:4f:
         c0:84:ef:1e:cd:b5:29:32:27:b2:9c:f4:fb:c7:56:7c:fe:ab:
         eb:8b:d4:75:10:ab:c9:38:a5:3a:ba:ac:60:b7:ac:b5:46:b2:
         d2:54:f7:2a:8b:41:38:c0:a3:b6:8e:31:88:81:9c:66:7c:b0:
         b6:de:98:ac:8e:d9:fe:8d:ee:f2:eb:4b:bc:6f:bd:9d:6b:6c:
         d1:b1:cb:5f:00:eb:7c:34:f8:7d:bc:63:79:92:94:b6:b6:40:
         49:6f:d8:f2:81:63:a3:c4
-----BEGIN CERTIFICATE-----
MIIGEzCCA/ugAwIBAgIBAjANBgkqhkiG9w0BAQsFADCBrDELMAkGA1UEBhMCVVMx
FjAUBgNVBAgMDU5ldyBIYW1wc2hpcmUxEjAQBgNVBAcMCUxpdHRsZXRvbjEZMBcG
A1UECgwQVGVzdCBDQSwgTGltaXRlZDEjMCEGA1UECwwaU2VydmVyIFJlc2VhcmNo
IERlcGFydG1lbnQxEDAOBgNVBAMMB1Rlc3QgQ0ExHzAdBgkqhkiG9w0BCQEWEHRl
c3RAZXhhbXBsZS5jb20wIBcNMjIwMzIxMjM0NzA1WhgPMjEyMjAyMjUyMzQ3MDVa
MIGIMQswCQYDVQQGEwJVUzESMBAGA1UECAwJTG91aXNpYW5hMRMwEQYDVQQHDApN
YXJrc3ZpbGxlMRkwFwYDVQQKDBBUZXN0IENBLCBMaW1pdGVkMSMwIQYDVQQLDBpT
ZXJ2ZXIgUmVzZWFyY2ggRGVwYXJ0bWVudDEQMA4GA1UEAwwHVGVzdCBDQTCCAiIw
DQYJKoZIhvcNAQEBBQADggIPADCCAgoCggIBANcvnYOw1y3WiswuH0paw4xU0tJ/
+YDZtQuLrL1nFVTAOFmeOLsXLs8+OtmqsHsGegaveLeO9+iXh6m7gngG4fJr9+KV
dl9SWG53XVIhsJvV6kFLZZ816cQQ7gap3gU+lgCvPzP6MG0q7ZcZft0X5bIEPACN
BsAvRs8xvWECyzfO76mEHgfnloY8FxZ5E07Om3LqO0jwqM9yo+veIBwaxIlMScX1
5akAZYONuv4l7EeDnzga7PWrTECkqZNT5eAjcd8OlJ6E9+xDybQKBcb8iXLBL9VK
0u4QUzEhv/ofCv3uQd52i+M+8kDsWXXY/fc9NSYqh9uYfZOfr/wx+UKvcUUH7aM1
unnEN7985eKodz0r4qJg7AgUuHkyfZrbbxcV/4SLtPh4bWQ+WGBaBfpguu8CqS9x
k2o10idAoaDTbUrTRWLRm8SJSEOJGJjhSUsey3jVpZ20xRLDmE8ZWmuF+2RdnxxT
Te5KqupvmaK/HGDFSWvIpYwqr+3CFGJaVzmcibwTLM/iOoGhGa6d/21LFpxV0MrJ
+bQpBw15IpHS77YWOWzx31d+mrEuuztD2yB6cLYjrJZT/Owb0x9qBeL5mdCAAH+/
UghDHjvUp8dmhNB8IMYvPAogrTJFL4hLh9/obOYziSlIXGjIgT8D+PocRfblJiar
7H/g7DTNFgBAhn+vAgMBAAGjYDBeMB0GA1UdDgQWBBSM1ngp6NPF54YU1LZsFS8+
qapcfjAfBgNVHSMEGDAWgBRIFaiwr6OcQaBemckUHSepttMp9zAPBgNVHRMBAf8E
BTADAQH/MAsGA1UdDwQEAwIBBjANBgkqhkiG9w0BAQsFAAOCAgEAOM1iI3TxhsaS
O9gytroLWaR0Q8/so2wWlXOgw0YxBSQ3mg2g65SBjZDRB2Ykpb2TAQlUsTAqJOyl
K5o9avQroXWw86ztgFgcuIOlMIajlKYbUTixJ7NtM/QrOckSZcIdhVFr4EM559vR
SZt6lqGkFXTWmQMzqVniy4i7808MPDHjKUHWhVr8R0pny6fUPfjRI/UfgDGC+iJN
gYeXG1XTmgpJN6St2Dhfwhk23ENqaqnQvYs8CQc7ci0U2zjINu58YHrRL8LeGyag
RX/phaBizvzxEPdA+tV0jkPCaKxgVLsF7y1o8yPNpX6vAPv+8MIQ7jtDAdA/g1AK
qIqf0M3maHVaBG8fU0GplpdhG2EAx+m6s48m96kj9uIshJ+bC4eBwjnHsgzczEF0
mZTGn5J58MvhTghLlGW87hKNNEk+5XHPOrrVSp2ZAtAQh8FhPhxswx5ZM0UBuggq
1GBNHo9rPmLJGdu668h22AqYaie7cb1+MdP9Fc44vrp9kdD7Am5BIn/g4kHYZZHe
bVFo/+mB144mLHkCNUFJUs8XAb1PwITvHs21KTInspz0+8dWfP6r64vUdRCryTil
OrqsYLestUay0lT3KotBOMCjto4xiIGcZnywtt6YrI7Z/o3u8utLvG+9nWts0bHL
XwDrfDT4fbxjeZKUtrZASW/Y8oFjo8Q=
-----END CERTIFICATE-----
