Certificate:
    Data:
        Version: 3 (0x2)
        Serial Number: 1 (0x1)
        Signature Algorithm: sha256WithRSAEncryption
        Issuer: C=US, ST=New Hampshire, L=Littleton, O=Test CA, Limited, OU=Server Research Department, CN=Test CA/emailAddress=test@example.com
        Validity
            Not Before: Apr 24 19:16:16 2022 GMT
            Not After : Mar 31 19:16:16 2122 GMT
        Subject: C=US, ST=Louisiana, L=Marksville, O=Test CA, Limited, OU=Server Research Department, CN=Test CA
        Subject Public Key Info:
            Public Key Algorithm: rsaEncryption
                RSA Public-Key: (4096 bit)
                Modulus:
                    00:b9:89:6d:c1:95:5b:19:9c:88:54:9d:0d:cd:6a:
                    a9:50:eb:d0:4a:4d:cd:fe:d7:95:1c:46:ad:d3:66:
                    a0:3b:43:bc:e0:2e:de:69:9b:a5:f7:fe:79:a8:1c:
                    46:c9:d9:63:21:54:0e:da:54:b3:16:a5:4a:53:f7:
                    2f:67:06:42:bf:40:b1:f8:dd:e6:6c:b4:97:89:c6:
                    d0:7b:87:a4:74:2a:a0:b9:8b:38:a5:ea:ce:27:1b:
                    73:71:7c:3f:fd:3f:9e:02:1f:2a:24:8a:f7:37:e0:
                    0d:d0:86:58:97:fc:3e:c2:84:4d:bc:73:ab:e0:46:
                    bf:3d:02:b5:bb:15:1c:a7:fc:d9:30:00:21:bb:b7:
                    a6:29:99:a0:e6:67:b2:84:3f:ba:5f:5a:22:3b:b5:
                    6e:7e:31:76:bc:04:94:e6:8b:98:b1:a8:e9:f5:b3:
                    2b:c8:35:ea:24:d3:59:e7:59:08:e1:45:0c:77:18:
                    6d:3f:65:fd:78:37:d7:5d:bc:da:76:58:11:76:22:
                    ca:9f:51:84:d7:88:31:40:77:ee:b8:63:5e:53:f8:
                    e9:13:41:f2:4f:9e:fa:9f:25:de:06:c7:02:5f:52:
                    51:c8:f0:33:9c:3c:13:68:97:a6:43:57:3e:0d:02:
                    d9:39:17:ec:40:25:90:2c:dd:78:8a:cf:50:95:fb:
                    d2:51:cd:c1:03:37:43:c5:eb:63:f8:f6:52:14:ea:
                    aa:f2:44:be:e9:d6:d4:5d:16:15:bf:da:dd:38:e1:
                    9b:3c:e1:75:18:68:d1:10:57:59:6e:de:cc:ca:26:
                    4c:46:45:34:41:22:81:a6:00:53:d6:f5:7f:cf:70:
                    f2:db:d7:38:31:27:8b:c0:17:b4:03:d6:5f:89:f2:
                    f5:dd:f4:e8:58:be:7f:5c:4b:a5:19:82:18:76:45:
                    36:94:b2:39:77:dc:21:22:b8:1b:25:bb:bd:dc:da:
                    4e:b9:a3:9f:b5:00:29:1b:05:38:2c:29:52:cf:60:
                    c0:30:56:9e:ff:c6:4b:ce:49:f2:46:6f:3e:2c:46:
                    43:22:31:c1:be:4a:6e:22:15:45:57:18:7c:ef:eb:
                    c9:00:73:6c:b6:1d:97:48:57:03:b1:87:0d:26:0a:
                    bf:33:ae:e6:dd:41:8c:0c:d8:6d:0a:e4:ff:94:e6:
                    4e:db:bb:9a:ca:a7:0e:36:2d:d9:c7:6d:6b:c8:35:
                    63:38:de:84:ba:dc:9c:8e:34:e6:fb:07:16:1e:20:
                    59:d2:b5:c9:71:f9:06:04:3f:ad:cb:d4:a6:62:67:
                    a9:d2:a4:da:ee:b5:24:e9:d3:1d:4f:c1:5d:47:db:
                    82:45:18:fd:34:67:da:de:74:c8:85:e4:de:25:99:
                    f6:a1:25
                Exponent: 65537 (0x10001)
        X509v3 extensions:
            X509v3 Subject Key Identifier: 
                D0:36:BB:D5:A4:F7:C9:FD:9D:87:D5:BB:AA:71:15:E0:1C:65:E0:CD
            X509v3 Authority Key Identifier: 
                keyid:8B:28:50:66:DD:38:48:DE:09:4E:66:6F:30:D7:56:CE:F5:29:44:8B

            X509v3 Basic Constraints: critical
                CA:TRUE
            X509v3 Key Usage: 
                Digital Signature, Certificate Sign, CRL Sign
    Signature Algorithm: sha256WithRSAEncryption
         13:f5:a6:6f:01:66:86:9f:b6:a2:15:d1:0b:55:79:02:d4:ed:
         94:28:12:e2:29:33:a6:78:52:3b:67:e5:03:ca:06:55:41:0d:
         6c:ab:3d:9c:0e:4b:6d:52:e1:df:1d:41:26:9d:63:97:81:6c:
         41:00:77:6a:fb:84:37:2d:48:32:92:3a:33:73:38:dd:d1:21:
         b5:32:97:1e:64:d2:9d:ba:ee:79:51:24:86:b0:b0:65:ee:14:
         41:d4:e5:28:38:7a:5f:ff:4b:87:86:fe:bc:ea:08:3c:64:ed:
         96:bc:67:16:95:0c:c0:11:93:34:71:13:5f:cc:37:53:a9:ba:
         2d:a5:08:89:7a:93:d5:fe:d7:83:a4:18:b6:df:82:9c:23:f6:
         ac:60:de:c8:6f:5d:f2:4e:f4:69:67:77:e6:24:36:b1:44:c8:
         67:9c:1a:b9:a9:d0:e3:d8:c7:25:b2:bd:19:e5:40:de:3b:c6:
         cd:50:17:da:38:18:1b:cf:77:0e:af:3e:f8:99:db:cf:65:06:
         5f:6d:c3:96:0e:eb:1f:5f:5f:dc:dc:e0:e3:38:aa:a7:0d:ec:
         8a:d3:b3:c7:d1:8f:b9:05:b1:1e:ef:d5:0d:b7:31:fd:25:ab:
         27:58:4c:4d:81:2c:37:a6:5e:e5:73:ff:67:c4:32:01:6f:41:
         28:81:58:f5:69:98:29:e7:19:50:86:df:84:d1:aa:8c:ea:65:
         68:aa:b5:3c:df:94:1d:e9:7e:00:09:51:5b:69:a4:4f:67:d2:
         0d:8b:f8:c0:24:af:e5:19:6e:97:60:74:75:2b:c8:b9:c2:58:
         ac:2f:b5:c1:04:93:b1:7f:d5:0f:4e:ef:26:d6:79:b5:69:f6:
         3b:dd:6c:f0:70:72:b0:cd:0c:9b:5a:9b:97:29:01:00:85:25:
         0f:3d:1d:6c:0f:d2:de:c8:7a:7a:a2:ce:cd:a1:9f:f5:a7:04:
         2c:30:a5:6a:fa:c8:e5:1d:90:80:27:e2:fe:5e:23:af:d3:17:
         f4:d6:cc:b5:21:19:bc:89:ed:2f:15:9a:ca:33:43:3f:30:44:
         07:dc:c6:a4:fc:b7:25:41:47:b7:18:c7:8b:59:16:c8:d9:ad:
         71:22:05:a9:4a:60:d5:66:58:44:44:0a:b0:db:4b:1d:8d:30:
         9c:04:04:5d:fe:6b:dc:96:51:62:a2:82:69:da:c9:3f:cf:aa:
         c6:3c:29:86:b0:28:87:1f:e5:d3:c0:24:18:ba:02:92:fc:a4:
         a6:d2:8a:39:74:56:c5:af:68:40:a1:99:ce:9b:a7:77:56:1f:
         9f:3a:42:15:a8:9c:06:45:a5:92:29:b8:8f:cf:b4:21:67:f0:
         9d:37:b9:8f:4a:3e:d1:90
-----BEGIN CERTIFICATE-----
MIIGEzCCA/ugAwIBAgIBATANBgkqhkiG9w0BAQsFADCBrDELMAkGA1UEBhMCVVMx
FjAUBgNVBAgMDU5ldyBIYW1wc2hpcmUxEjAQBgNVBAcMCUxpdHRsZXRvbjEZMBcG
A1UECgwQVGVzdCBDQSwgTGltaXRlZDEjMCEGA1UECwwaU2VydmVyIFJlc2VhcmNo
IERlcGFydG1lbnQxEDAOBgNVBAMMB1Rlc3QgQ0ExHzAdBgkqhkiG9w0BCQEWEHRl
c3RAZXhhbXBsZS5jb20wIBcNMjIwNDI0MTkxNjE2WhgPMjEyMjAzMzExOTE2MTZa
MIGIMQswCQYDVQQGEwJVUzESMBAGA1UECAwJTG91aXNpYW5hMRMwEQYDVQQHDApN
YXJrc3ZpbGxlMRkwFwYDVQQKDBBUZXN0IENBLCBMaW1pdGVkMSMwIQYDVQQLDBpT
ZXJ2ZXIgUmVzZWFyY2ggRGVwYXJ0bWVudDEQMA4GA1UEAwwHVGVzdCBDQTCCAiIw
DQYJKoZIhvcNAQEBBQADggIPADCCAgoCggIBALmJbcGVWxmciFSdDc1qqVDr0EpN
zf7XlRxGrdNmoDtDvOAu3mmbpff+eagcRsnZYyFUDtpUsxalSlP3L2cGQr9Asfjd
5my0l4nG0HuHpHQqoLmLOKXqzicbc3F8P/0/ngIfKiSK9zfgDdCGWJf8PsKETbxz
q+BGvz0CtbsVHKf82TAAIbu3pimZoOZnsoQ/ul9aIju1bn4xdrwElOaLmLGo6fWz
K8g16iTTWedZCOFFDHcYbT9l/Xg311282nZYEXYiyp9RhNeIMUB37rhjXlP46RNB
8k+e+p8l3gbHAl9SUcjwM5w8E2iXpkNXPg0C2TkX7EAlkCzdeIrPUJX70lHNwQM3
Q8XrY/j2UhTqqvJEvunW1F0WFb/a3TjhmzzhdRho0RBXWW7ezMomTEZFNEEigaYA
U9b1f89w8tvXODEni8AXtAPWX4ny9d306Fi+f1xLpRmCGHZFNpSyOXfcISK4GyW7
vdzaTrmjn7UAKRsFOCwpUs9gwDBWnv/GS85J8kZvPixGQyIxwb5KbiIVRVcYfO/r
yQBzbLYdl0hXA7GHDSYKvzOu5t1BjAzYbQrk/5TmTtu7msqnDjYt2cdta8g1Yzje
hLrcnI405vsHFh4gWdK1yXH5BgQ/rcvUpmJnqdKk2u61JOnTHU/BXUfbgkUY/TRn
2t50yIXk3iWZ9qElAgMBAAGjYDBeMB0GA1UdDgQWBBTQNrvVpPfJ/Z2H1buqcRXg
HGXgzTAfBgNVHSMEGDAWgBSLKFBm3ThI3glOZm8w11bO9SlEizAPBgNVHRMBAf8E
BTADAQH/MAsGA1UdDwQEAwIBhjANBgkqhkiG9w0BAQsFAAOCAgEAE/WmbwFmhp+2
ohXRC1V5AtTtlCgS4ikzpnhSO2flA8oGVUENbKs9nA5LbVLh3x1BJp1jl4FsQQB3
avuENy1IMpI6M3M43dEhtTKXHmTSnbrueVEkhrCwZe4UQdTlKDh6X/9Lh4b+vOoI
PGTtlrxnFpUMwBGTNHETX8w3U6m6LaUIiXqT1f7Xg6QYtt+CnCP2rGDeyG9d8k70
aWd35iQ2sUTIZ5wauanQ49jHJbK9GeVA3jvGzVAX2jgYG893Dq8++Jnbz2UGX23D
lg7rH19f3Nzg4ziqpw3sitOzx9GPuQWxHu/VDbcx/SWrJ1hMTYEsN6Ze5XP/Z8Qy
AW9BKIFY9WmYKecZUIbfhNGqjOplaKq1PN+UHel+AAlRW2mkT2fSDYv4wCSv5Rlu
l2B0dSvIucJYrC+1wQSTsX/VD07vJtZ5tWn2O91s8HBysM0Mm1qblykBAIUlDz0d
bA/S3sh6eqLOzaGf9acELDClavrI5R2QgCfi/l4jr9MX9NbMtSEZvIntLxWayjND
PzBEB9zGpPy3JUFHtxjHi1kWyNmtcSIFqUpg1WZYREQKsNtLHY0wnAQEXf5r3JZR
YqKCadrJP8+qxjwphrAohx/l08AkGLoCkvykptKKOXRWxa9oQKGZzpund1YfnzpC
FaicBkWlkim4j8+0IWfwnTe5j0o+0ZA=
-----END CERTIFICATE-----
