Certificate:
    Data:
        Version: 3 (0x2)
        Serial Number: 3 (0x3)
        Signature Algorithm: sha256WithRSAEncryption
        Issuer: C=US, ST=Louisiana, L=Marksville, O=Test CA, Limited, OU=Server Research Department, CN=Test CA
        Validity
            Not Before: Mar 21 23:47:58 2022 GMT
            Not After : Feb 25 23:47:58 2122 GMT
        Subject: C=US, ST=Maine, L=Macwahoc, O=Test CA, Limited, OU=Server Research Department, CN=Test CA
        Subject Public Key Info:
            Public Key Algorithm: rsaEncryption
                RSA Public-Key: (4096 bit)
                Modulus:
                    00:d8:42:af:0b:84:61:4e:0d:63:d7:b7:4c:bc:f0:
                    8d:20:15:75:6e:60:93:e9:3b:c7:b0:68:43:66:c2:
                    36:61:5d:90:26:dc:73:14:37:f3:10:a8:64:38:4c:
                    86:07:e4:7f:42:db:30:c2:57:53:26:99:98:cf:61:
                    30:32:3a:00:8b:bf:fd:c9:98:4d:6f:35:fd:68:70:
                    57:26:01:37:e1:5c:aa:bd:9e:40:45:74:38:90:e5:
                    5d:ea:10:a4:e2:e5:47:8e:9a:51:58:0b:23:4b:2e:
                    4f:b2:4c:fa:f9:7f:6e:e5:74:80:4a:a0:ef:2b:06:
                    0c:f7:6e:70:bf:97:b8:d6:76:35:f2:ea:b1:fc:50:
                    ac:f9:d0:d5:80:a4:ce:0e:a9:5b:c0:f4:39:57:f8:
                    d0:23:98:91:fb:ad:34:fc:bb:ed:f6:11:2b:2d:f0:
                    ed:ce:ed:e4:3d:d7:d8:51:04:c5:6b:71:d8:3d:fa:
                    13:6f:5f:2f:50:5f:9f:7f:3e:be:c7:88:65:b1:20:
                    e0:a1:ff:78:32:43:10:cd:21:9f:1f:bb:b8:1b:d9:
                    0f:e8:75:9d:30:9e:4d:39:a4:a8:82:7c:48:92:7b:
                    86:e5:eb:50:10:10:9d:81:83:28:0c:b7:4e:60:74:
                    b6:0c:67:87:d2:4b:da:c9:91:35:6c:b2:c4:cd:e6:
                    1c:a3:69:d9:cb:57:61:b4:1d:9b:f8:7e:d4:22:80:
                    f5:cd:3c:dd:c8:36:f9:c4:d2:e7:ba:81:c4:6f:55:
                    79:ec:18:95:51:0f:e3:0b:b5:c2:36:c4:57:dd:c3:
                    6d:ed:3f:6b:12:f9:eb:68:e2:54:08:fa:51:06:5f:
                    6c:a9:94:80:53:85:49:9f:39:91:61:48:bd:d5:78:
                    a8:39:e6:fd:61:e3:4e:6f:8b:78:5a:c8:3b:e2:06:
                    0e:82:bb:6c:6a:08:c5:59:10:7c:c7:e3:ed:b4:34:
                    98:25:cb:ff:0a:11:3f:92:10:b5:bb:9c:22:1a:e7:
                    df:52:7d:f9:cf:18:e8:41:57:b9:87:0c:d5:ea:db:
                    bc:9f:55:eb:98:54:02:2d:02:a1:5c:3b:2a:0b:5d:
                    16:03:b9:9c:9b:00:d3:cc:99:d4:0e:8b:b9:05:cb:
                    57:a3:99:fe:3c:3f:b7:a7:13:81:8f:9d:34:c0:5d:
                    36:9a:28:19:f6:8d:47:02:f0:42:d6:d4:d8:67:58:
                    72:cc:45:75:d0:85:68:f4:58:3d:25:de:bd:5f:98:
                    0f:31:f9:95:c2:24:ac:ef:64:71:ed:9c:d3:88:9a:
                    f5:18:40:1e:da:07:ae:ae:af:8d:f2:d6:9d:90:3a:
                    fa:c0:66:44:27:07:5a:28:f5:e7:56:37:e7:cf:3e:
                    56:ec:d5
                Exponent: 65537 (0x10001)
        X509v3 extensions:
            X509v3 Subject Key Identifier: 
                69:21:62:47:BF:AF:E4:76:E4:82:5A:E5:DC:F4:28:BF:56:CA:B8:15
            X509v3 Authority Key Identifier: 
                keyid:8C:D6:78:29:E8:D3:C5:E7:86:14:D4:B6:6C:15:2F:3E:A9:AA:5C:7E

            X509v3 Basic Constraints: 
                CA:TRUE
            X509v3 Key Usage: 
                Certificate Sign, CRL Sign
    Signature Algorithm: sha256WithRSAEncryption
         5d:9f:75:a4:f9:fa:dc:cb:3d:fc:9c:0e:11:d3:92:fc:39:d3:
         1a:32:43:89:2a:79:8a:85:14:30:76:de:99:94:dd:99:42:95:
         4a:36:22:3d:49:3f:bf:2d:92:25:a5:9e:1a:df:7a:02:df:4f:
         34:b9:0a:69:df:af:4f:9a:78:e0:47:a1:01:6c:f5:c0:a8:35:
         39:52:b2:06:d0:c4:c1:b7:4c:ed:3d:4e:3a:34:b5:73:3e:23:
         c7:c2:2c:80:89:04:52:31:df:71:09:77:a1:fa:99:9b:19:68:
         45:94:ce:00:b0:da:c6:1d:cc:eb:29:bd:e3:e7:d7:61:65:65:
         7d:cf:6b:6c:58:fc:5b:a9:e0:f0:af:d7:09:22:33:8d:0d:ba:
         7e:b0:4b:45:c2:d0:96:fd:1f:40:3e:8e:bc:da:9e:4e:9c:3c:
         34:4c:7e:e5:db:a3:a8:37:fd:d1:3a:4c:6e:aa:85:29:15:1d:
         60:f0:22:54:ac:78:a6:61:ca:04:60:1f:34:d6:94:eb:69:80:
         53:fe:41:15:b9:b1:16:1a:97:02:25:87:28:88:51:a8:41:73:
         09:f0:65:7f:fe:1e:2b:82:9f:e7:ad:30:e2:4c:54:34:2d:1b:
         f6:58:3c:3c:bf:9d:7d:19:09:e1:62:e9:fc:38:2f:aa:0c:8f:
         bf:35:41:34:b1:5c:6b:1c:bd:6b:d5:73:f2:29:f2:69:d4:58:
         44:a3:12:76:61:53:e6:57:5d:7e:bc:4a:fa:e5:4f:73:48:69:
         1f:1d:2d:37:e8:22:64:b0:e4:76:71:bf:be:59:ec:74:fc:89:
         72:05:97:24:95:19:6e:d2:22:a5:e2:3c:90:97:e3:7b:24:fd:
         73:9b:63:35:0d:75:d5:17:90:53:a1:5e:78:0d:f7:68:59:57:
         29:ca:46:a1:b0:99:09:f2:9e:93:d1:32:ef:67:8e:e0:0a:c7:
         dc:91:db:eb:58:3b:53:69:f9:0d:cd:e5:b9:4d:1d:24:7a:9b:
         76:a2:c7:6b:c9:34:b0:1e:6c:86:28:ae:b4:18:29:75:56:a0:
         48:6c:01:25:c3:21:66:9a:70:07:7a:27:f1:c5:75:26:df:6f:
         fb:5f:c4:72:e0:35:82:eb:70:5a:1f:85:15:02:8c:c5:47:cc:
         7a:80:8b:1b:1b:21:61:5b:20:39:7e:f2:3c:4f:12:7a:c6:a1:
         54:3a:f4:b8:1c:e3:dd:b4:39:87:a2:84:71:f5:ae:04:f0:95:
         52:ea:8f:1e:ad:50:4b:7c:65:54:e2:ec:02:95:e8:53:35:76:
         39:db:13:04:b1:9c:5a:00:65:60:a3:2c:14:d1:2d:8f:77:63:
         bd:25:f6:0c:39:83:76:5f
-----BEGIN CERTIFICATE-----
MIIF5jCCA86gAwIBAgIBAzANBgkqhkiG9w0BAQsFADCBiDELMAkGA1UEBhMCVVMx
EjAQBgNVBAgMCUxvdWlzaWFuYTETMBEGA1UEBwwKTWFya3N2aWxsZTEZMBcGA1UE
CgwQVGVzdCBDQSwgTGltaXRlZDEjMCEGA1UECwwaU2VydmVyIFJlc2VhcmNoIERl
cGFydG1lbnQxEDAOBgNVBAMMB1Rlc3QgQ0EwIBcNMjIwMzIxMjM0NzU4WhgPMjEy
MjAyMjUyMzQ3NThaMIGCMQswCQYDVQQGEwJVUzEOMAwGA1UECAwFTWFpbmUxETAP
BgNVBAcMCE1hY3dhaG9jMRkwFwYDVQQKDBBUZXN0IENBLCBMaW1pdGVkMSMwIQYD
VQQLDBpTZXJ2ZXIgUmVzZWFyY2ggRGVwYXJ0bWVudDEQMA4GA1UEAwwHVGVzdCBD
QTCCAiIwDQYJKoZIhvcNAQEBBQADggIPADCCAgoCggIBANhCrwuEYU4NY9e3TLzw
jSAVdW5gk+k7x7BoQ2bCNmFdkCbccxQ38xCoZDhMhgfkf0LbMMJXUyaZmM9hMDI6
AIu//cmYTW81/WhwVyYBN+Fcqr2eQEV0OJDlXeoQpOLlR46aUVgLI0suT7JM+vl/
buV0gEqg7ysGDPducL+XuNZ2NfLqsfxQrPnQ1YCkzg6pW8D0OVf40COYkfutNPy7
7fYRKy3w7c7t5D3X2FEExWtx2D36E29fL1Bfn38+vseIZbEg4KH/eDJDEM0hnx+7
uBvZD+h1nTCeTTmkqIJ8SJJ7huXrUBAQnYGDKAy3TmB0tgxnh9JL2smRNWyyxM3m
HKNp2ctXYbQdm/h+1CKA9c083cg2+cTS57qBxG9VeewYlVEP4wu1wjbEV93Dbe0/
axL562jiVAj6UQZfbKmUgFOFSZ85kWFIvdV4qDnm/WHjTm+LeFrIO+IGDoK7bGoI
xVkQfMfj7bQ0mCXL/woRP5IQtbucIhrn31J9+c8Y6EFXuYcM1erbvJ9V65hUAi0C
oVw7KgtdFgO5nJsA08yZ1A6LuQXLV6OZ/jw/t6cTgY+dNMBdNpooGfaNRwLwQtbU
2GdYcsxFddCFaPRYPSXevV+YDzH5lcIkrO9kce2c04ia9RhAHtoHrq6vjfLWnZA6
+sBmRCcHWij151Y3588+VuzVAgMBAAGjXTBbMB0GA1UdDgQWBBRpIWJHv6/kduSC
WuXc9Ci/Vsq4FTAfBgNVHSMEGDAWgBSM1ngp6NPF54YU1LZsFS8+qapcfjAMBgNV
HRMEBTADAQH/MAsGA1UdDwQEAwIBBjANBgkqhkiG9w0BAQsFAAOCAgEAXZ91pPn6
3Ms9/JwOEdOS/DnTGjJDiSp5ioUUMHbemZTdmUKVSjYiPUk/vy2SJaWeGt96At9P
NLkKad+vT5p44EehAWz1wKg1OVKyBtDEwbdM7T1OOjS1cz4jx8IsgIkEUjHfcQl3
ofqZmxloRZTOALDaxh3M6ym94+fXYWVlfc9rbFj8W6ng8K/XCSIzjQ26frBLRcLQ
lv0fQD6OvNqeTpw8NEx+5dujqDf90TpMbqqFKRUdYPAiVKx4pmHKBGAfNNaU62mA
U/5BFbmxFhqXAiWHKIhRqEFzCfBlf/4eK4Kf560w4kxUNC0b9lg8PL+dfRkJ4WLp
/DgvqgyPvzVBNLFcaxy9a9Vz8inyadRYRKMSdmFT5lddfrxK+uVPc0hpHx0tN+gi
ZLDkdnG/vlnsdPyJcgWXJJUZbtIipeI8kJfjeyT9c5tjNQ111ReQU6FeeA33aFlX
KcpGobCZCfKek9Ey72eO4ArH3JHb61g7U2n5Dc3luU0dJHqbdqLHa8k0sB5shiiu
tBgpdVagSGwBJcMhZppwB3on8cV1Jt9v+1/EcuA1gutwWh+FFQKMxUfMeoCLGxsh
YVsgOX7yPE8SesahVDr0uBzj3bQ5h6KEcfWuBPCVUuqPHq1QS3xlVOLsApXoUzV2
OdsTBLGcWgBlYKMsFNEtj3djvSX2DDmDdl8=
-----END CERTIFICATE-----
