Certificate:
    Data:
        Version: 3 (0x2)
        Serial Number: 1 (0x1)
        Signature Algorithm: sha256WithRSAEncryption
        Issuer: C=US, ST=Louisiana, L=Marksville, O=Test CA, Limited, OU=Server Research Department, CN=Test CA
        Validity
            Not Before: Apr 24 19:17:04 2022 GMT
            Not After : Mar 31 19:17:04 2122 GMT
        Subject: C=US, ST=Maine, L=Macwahoc, O=Test CA, Limited, OU=Server Research Department, CN=Test CA
        Subject Public Key Info:
            Public Key Algorithm: rsaEncryption
                RSA Public-Key: (4096 bit)
                Modulus:
                    00:fb:7d:9d:65:ea:fe:bc:91:c9:1e:15:63:24:56:
                    9a:27:35:29:d4:e0:40:8a:0c:b2:93:d2:a2:fc:84:
                    a8:54:4d:0f:f4:8c:f3:21:b9:4c:69:86:68:fd:4d:
                    c9:0c:61:e0:13:8e:71:b2:17:4b:34:a9:c6:96:c0:
                    45:55:cb:6f:ff:cc:87:71:ba:6f:c2:60:ee:4d:af:
                    c4:5d:dd:b1:29:2b:5b:df:bd:73:fc:87:03:ef:30:
                    76:8c:b2:70:3b:c5:fe:e1:3c:78:90:04:41:e7:7a:
                    c7:12:ba:2d:36:c7:f3:75:9a:8b:d2:d3:c9:d0:bb:
                    8d:9d:7e:68:ca:d6:17:54:cc:c2:f6:1b:81:c3:52:
                    dc:ce:d3:0d:ad:b4:2b:10:09:58:e0:22:04:cc:5a:
                    a0:ea:be:06:c5:8c:4b:4e:0f:34:fe:f5:4e:35:ad:
                    63:b9:d0:f7:7b:aa:af:51:58:fb:bc:8c:00:6f:f0:
                    d6:ba:5e:21:97:2a:16:18:8d:75:e8:8e:30:41:df:
                    8a:b7:14:fb:71:a3:cd:18:07:77:be:05:60:5b:89:
                    aa:ba:af:d8:fa:11:18:0c:24:07:e5:a6:4f:4b:df:
                    99:a6:db:6f:c8:5b:88:75:be:19:02:d1:8b:7e:99:
                    06:ae:21:5f:b0:4c:93:15:94:9c:c7:b7:b5:92:41:
                    ae:65:24:7b:b2:62:89:fd:9a:9c:c8:cb:48:fd:94:
                    24:59:81:44:b6:2a:be:3b:f6:aa:ec:cb:44:02:eb:
                    85:f2:50:1b:9f:07:49:29:a6:7c:57:6e:5a:07:7d:
                    52:26:32:66:10:69:07:02:2b:58:a5:9d:24:c6:55:
                    73:bb:af:19:d4:4a:c4:40:1b:fc:43:e5:91:82:39:
                    e9:c2:8c:36:2c:f3:e6:ca:10:dd:9d:d0:c2:7b:05:
                    15:99:9f:37:6d:19:ab:ff:98:77:3d:be:23:8a:cf:
                    f6:91:9c:3d:d2:5f:56:b7:90:34:40:4e:75:ed:14:
                    9c:7c:b7:42:16:a2:3c:1a:89:ed:ba:86:b1:2f:3f:
                    c6:7b:9c:7e:b9:40:a9:4e:13:87:95:df:ee:69:f2:
                    ad:ae:d6:fd:7d:a0:1d:9b:83:f0:98:94:dd:84:7a:
                    ee:59:4e:96:2f:41:0b:ec:30:f3:14:c7:f9:2b:1f:
                    5f:92:81:a3:c5:28:b2:9a:dd:b7:04:fa:c5:85:78:
                    b7:f7:3a:4b:cd:3b:4e:28:5f:6c:83:68:ee:e4:16:
                    44:a3:da:1d:59:bd:03:40:58:31:ef:b7:fc:4e:9e:
                    bd:0e:1c:10:76:61:c7:5d:06:83:0e:22:f8:29:aa:
                    29:9b:ba:b8:bc:63:6a:34:b4:53:f2:03:49:28:78:
                    41:e3:65
                Exponent: 65537 (0x10001)
        X509v3 extensions:
            X509v3 Subject Key Identifier: 
                FC:66:5C:5C:33:16:48:09:7C:00:E2:53:09:83:4F:8B:71:F0:01:B8
            X509v3 Authority Key Identifier: 
                keyid:D0:36:BB:D5:A4:F7:C9:FD:9D:87:D5:BB:AA:71:15:E0:1C:65:E0:CD

            X509v3 Basic Constraints: 
                CA:TRUE
            X509v3 Key Usage: 
                Digital Signature, Certificate Sign, CRL Sign
    Signature Algorithm: sha256WithRSAEncryption
         5b:d6:9f:d0:a1:a3:b6:77:f7:5f:b8:24:c9:d3:89:59:13:7f:
         40:49:74:96:a1:1b:9f:a1:01:e9:d6:50:93:40:5d:6b:20:89:
         58:7f:25:a7:8a:eb:bd:02:c6:6b:c0:7d:7b:7d:28:b2:07:07:
         3b:4b:77:fa:16:b1:09:12:6e:dd:5e:13:f3:f3:ac:d3:d0:88:
         be:f7:63:0b:02:60:99:bc:d8:94:95:a6:1a:0e:28:d9:5f:43:
         5e:2a:17:4d:1f:d5:da:d5:c7:8c:03:16:d0:40:85:e5:04:ab:
         b5:43:41:0a:c8:74:c2:a4:77:d5:11:c9:26:56:e8:b1:32:f3:
         52:52:4a:43:79:7f:fe:26:5b:d3:d3:3a:8b:9f:e8:36:15:6c:
         d5:b2:de:76:a3:9a:a0:00:08:da:a0:63:bc:cf:fd:79:e4:16:
         e8:16:c8:42:67:61:f5:bd:65:4f:c7:9e:be:3f:ec:7c:a5:68:
         93:7d:61:62:42:f6:88:d6:aa:ce:3c:53:6a:d4:43:db:78:d4:
         2f:09:61:2f:8e:a5:b3:02:38:6a:30:f2:9b:ef:3e:38:a3:4c:
         9f:f6:bc:9f:d8:a2:8e:22:61:58:e4:08:4a:b1:0e:c7:e2:13:
         a4:29:7e:9c:16:b7:7c:e9:27:58:a8:74:69:f4:09:de:e8:5e:
         11:2a:d0:61:60:8d:dc:57:13:a6:bf:a4:29:77:ff:63:02:8e:
         af:ec:31:df:d7:8c:c6:1a:a4:23:6e:54:33:9a:75:5d:a9:d7:
         3b:0e:5e:a0:f8:8b:4e:96:54:8c:20:8e:ed:01:ab:02:b5:98:
         06:6e:fa:54:36:c8:c7:c8:d8:dc:44:6f:cb:4d:c9:c8:a0:26:
         ee:47:31:fd:16:95:a3:2b:6f:70:b9:1f:68:5e:eb:49:48:86:
         39:87:c6:68:8e:b9:74:92:4c:c9:65:3e:23:c7:20:19:da:2a:
         4e:e1:9d:97:1f:2d:5d:3a:5e:d8:e2:90:c6:99:10:f0:e0:67:
         d5:89:a2:b7:e0:c5:51:67:f9:bd:82:52:58:77:41:74:c1:c9:
         8e:10:60:af:fa:d9:5c:16:02:56:fb:a5:f7:28:a1:c2:73:a5:
         eb:c5:fc:a3:95:0e:41:7d:13:d0:56:79:b7:7a:e1:65:76:8f:
         16:0c:3b:35:26:11:1c:04:7f:bb:5e:96:08:f1:e6:64:67:72:
         2a:9b:6a:3f:8a:d1:a3:50:90:70:ba:6c:b2:fe:7b:3c:0e:c3:
         dc:30:fc:e1:03:7f:2e:dd:ee:9a:f3:21:30:75:0b:a1:64:b9:
         e8:8a:b1:8a:21:df:a7:f7:39:02:9b:d7:e1:62:5c:75:70:09:
         e2:7a:45:e7:46:24:d2:57
-----BEGIN CERTIFICATE-----
MIIF5jCCA86gAwIBAgIBATANBgkqhkiG9w0BAQsFADCBiDELMAkGA1UEBhMCVVMx
EjAQBgNVBAgMCUxvdWlzaWFuYTETMBEGA1UEBwwKTWFya3N2aWxsZTEZMBcGA1UE
CgwQVGVzdCBDQSwgTGltaXRlZDEjMCEGA1UECwwaU2VydmVyIFJlc2VhcmNoIERl
cGFydG1lbnQxEDAOBgNVBAMMB1Rlc3QgQ0EwIBcNMjIwNDI0MTkxNzA0WhgPMjEy
MjAzMzExOTE3MDRaMIGCMQswCQYDVQQGEwJVUzEOMAwGA1UECAwFTWFpbmUxETAP
BgNVBAcMCE1hY3dhaG9jMRkwFwYDVQQKDBBUZXN0IENBLCBMaW1pdGVkMSMwIQYD
VQQLDBpTZXJ2ZXIgUmVzZWFyY2ggRGVwYXJ0bWVudDEQMA4GA1UEAwwHVGVzdCBD
QTCCAiIwDQYJKoZIhvcNAQEBBQADggIPADCCAgoCggIBAPt9nWXq/ryRyR4VYyRW
mic1KdTgQIoMspPSovyEqFRND/SM8yG5TGmGaP1NyQxh4BOOcbIXSzSpxpbARVXL
b//Mh3G6b8Jg7k2vxF3dsSkrW9+9c/yHA+8wdoyycDvF/uE8eJAEQed6xxK6LTbH
83Wai9LTydC7jZ1+aMrWF1TMwvYbgcNS3M7TDa20KxAJWOAiBMxaoOq+BsWMS04P
NP71TjWtY7nQ93uqr1FY+7yMAG/w1rpeIZcqFhiNdeiOMEHfircU+3GjzRgHd74F
YFuJqrqv2PoRGAwkB+WmT0vfmabbb8hbiHW+GQLRi36ZBq4hX7BMkxWUnMe3tZJB
rmUke7Jiif2anMjLSP2UJFmBRLYqvjv2quzLRALrhfJQG58HSSmmfFduWgd9UiYy
ZhBpBwIrWKWdJMZVc7uvGdRKxEAb/EPlkYI56cKMNizz5soQ3Z3QwnsFFZmfN20Z
q/+Ydz2+I4rP9pGcPdJfVreQNEBOde0UnHy3QhaiPBqJ7bqGsS8/xnucfrlAqU4T
h5Xf7mnyra7W/X2gHZuD8JiU3YR67llOli9BC+ww8xTH+SsfX5KBo8UosprdtwT6
xYV4t/c6S807TihfbINo7uQWRKPaHVm9A0BYMe+3/E6evQ4cEHZhx10Ggw4i+Cmq
KZu6uLxjajS0U/IDSSh4QeNlAgMBAAGjXTBbMB0GA1UdDgQWBBT8ZlxcMxZICXwA
4lMJg0+LcfABuDAfBgNVHSMEGDAWgBTQNrvVpPfJ/Z2H1buqcRXgHGXgzTAMBgNV
HRMEBTADAQH/MAsGA1UdDwQEAwIBhjANBgkqhkiG9w0BAQsFAAOCAgEAW9af0KGj
tnf3X7gkydOJWRN/QEl0lqEbn6EB6dZQk0BdayCJWH8lp4rrvQLGa8B9e30osgcH
O0t3+haxCRJu3V4T8/Os09CIvvdjCwJgmbzYlJWmGg4o2V9DXioXTR/V2tXHjAMW
0ECF5QSrtUNBCsh0wqR31RHJJlbosTLzUlJKQ3l//iZb09M6i5/oNhVs1bLedqOa
oAAI2qBjvM/9eeQW6BbIQmdh9b1lT8eevj/sfKVok31hYkL2iNaqzjxTatRD23jU
LwlhL46lswI4ajDym+8+OKNMn/a8n9iijiJhWOQISrEOx+ITpCl+nBa3fOknWKh0
afQJ3uheESrQYWCN3FcTpr+kKXf/YwKOr+wx39eMxhqkI25UM5p1XanXOw5eoPiL
TpZUjCCO7QGrArWYBm76VDbIx8jY3ERvy03JyKAm7kcx/RaVoytvcLkfaF7rSUiG
OYfGaI65dJJMyWU+I8cgGdoqTuGdlx8tXTpe2OKQxpkQ8OBn1Ymit+DFUWf5vYJS
WHdBdMHJjhBgr/rZXBYCVvul9yihwnOl68X8o5UOQX0T0FZ5t3rhZXaPFgw7NSYR
HAR/u16WCPHmZGdyKptqP4rRo1CQcLpssv57PA7D3DD84QN/Lt3umvMhMHULoWS5
6IqxiiHfp/c5ApvX4WJcdXAJ4npF50Yk0lc=
-----END CERTIFICATE-----
