Certificate:
    Data:
        Version: 3 (0x2)
        Serial Number: 1 (0x1)
        Signature Algorithm: sha256WithRSAEncryption
        Issuer: C=US, ST=Arkansas, L=Hot Springs, O=Test CA, Limited, OU=Server Research Department, CN=Test CA
        Validity
            Not Before: Apr 24 19:17:16 2022 GMT
            Not After : Mar 31 19:17:16 2122 GMT
        Subject: C=US, ST=Vermont, L=Vergennes, O=Test CA, Limited, OU=Server Research Department, CN=Test CA
        Subject Public Key Info:
            Public Key Algorithm: rsaEncryption
                RSA Public-Key: (4096 bit)
                Modulus:
                    00:d9:92:5d:2a:1c:52:f4:93:5d:11:18:20:08:d8:
                    c5:b9:5a:a4:cf:ee:ae:5f:cc:ab:f5:e1:29:ca:f6:
                    32:35:bb:48:30:13:c7:eb:80:37:fa:2d:ff:ee:8e:
                    86:35:ca:38:dc:33:71:c5:99:fc:e1:b6:e9:10:08:
                    d8:dc:14:9a:de:ae:99:c8:ae:89:9a:a6:23:8f:8a:
                    cc:09:66:84:38:21:d1:12:3d:d4:a6:cd:2a:c3:ab:
                    58:26:54:26:8a:4a:b0:a8:c0:c9:d6:c7:44:5e:00:
                    5e:ef:b4:2f:ef:22:6e:62:87:2c:9b:85:93:c5:9e:
                    d4:36:cb:a6:dc:56:56:bb:67:13:5a:ab:45:53:7b:
                    7f:89:27:10:85:1a:6c:da:dd:9a:ce:fd:3a:a9:10:
                    08:9d:3c:fe:47:0c:9e:2e:18:09:6b:d6:cd:56:c2:
                    4b:d0:56:ad:b7:b5:80:25:29:fd:a2:86:4b:4c:d4:
                    ee:09:13:01:94:b9:77:75:75:05:7e:cf:76:2a:3b:
                    ab:3f:97:f5:3d:ef:22:65:41:14:37:7c:4e:05:ce:
                    a5:e9:db:29:b0:1f:97:d9:51:c5:33:fa:3a:d1:8f:
                    39:a2:53:b0:e1:c4:1d:97:98:b9:07:99:1c:aa:69:
                    62:16:69:7e:d6:9b:a1:e0:b5:02:de:0e:2b:54:b4:
                    f7:d2:a8:99:f9:e7:e8:81:bf:47:06:8f:79:5a:c7:
                    ec:57:16:a5:50:60:14:1d:7b:0b:58:5a:85:68:d0:
                    c7:80:6e:2b:bf:fe:b4:a9:c8:4f:7d:0b:98:5e:24:
                    83:00:26:78:7f:e3:76:f8:37:a8:0b:0d:e0:f0:ea:
                    53:c8:8a:ae:eb:4c:27:81:9a:7d:b3:a0:65:c1:a1:
                    78:4c:89:b6:55:86:2c:67:4d:3c:88:16:99:6a:6e:
                    7e:c8:65:26:83:c7:32:87:56:5d:90:e7:72:5d:a3:
                    3c:b1:0d:aa:e5:75:4a:0b:2c:88:6a:06:78:47:73:
                    67:2b:5d:b3:a5:d2:3f:a3:e3:75:8a:57:c9:f3:87:
                    7a:8c:38:c0:e7:fb:7d:ff:3f:d2:b0:23:89:0d:df:
                    63:78:35:bb:3e:25:1f:c3:5d:b6:9e:47:4d:53:74:
                    81:19:dc:24:11:eb:34:97:d8:e5:86:cf:00:2b:a0:
                    54:a2:9c:be:c9:41:05:10:47:57:28:8e:5d:1a:8c:
                    0c:ed:43:72:a9:b0:72:0c:54:c8:5a:f8:dc:40:53:
                    cc:66:46:68:b2:52:2e:f1:cf:1a:7c:9f:ed:58:50:
                    72:19:6f:ae:a8:8d:b0:c5:78:35:72:21:a3:13:eb:
                    2c:b0:5c:a8:59:b6:f0:2d:5c:3b:19:78:47:5d:05:
                    f5:34:c9
                Exponent: 65537 (0x10001)
        X509v3 extensions:
            X509v3 Subject Key Identifier: 
                ED:E0:33:CE:38:F1:15:80:B2:83:F6:B6:40:68:24:71:90:97:B4:33
            X509v3 Authority Key Identifier: 
                keyid:AD:96:8E:71:FE:A2:6F:EE:63:88:76:3A:49:02:87:5A:E4:7A:C5:5D

            X509v3 Basic Constraints: 
                CA:FALSE
            X509v3 Key Usage: 
                Digital Signature, Key Encipherment
    Signature Algorithm: sha256WithRSAEncryption
         b3:83:82:d0:37:71:42:e7:66:c7:b1:0d:a0:f5:9c:0a:5d:02:
         85:de:ed:f7:44:d7:1e:c2:bb:27:c7:2c:a6:3e:72:98:8e:84:
         a9:72:77:41:fe:26:3a:53:4b:00:50:ad:25:89:ae:05:41:dc:
         c5:05:66:a3:e5:82:88:84:5b:0c:58:38:64:c0:4c:8d:8b:ca:
         95:f0:e9:c3:3a:29:29:e0:f1:04:f3:b3:2a:71:3a:30:d3:fc:
         dd:30:c0:ad:dc:f7:95:c8:9c:d9:3b:91:ef:d4:c7:b7:9e:55:
         ca:cd:72:bb:52:de:f7:29:95:57:b7:f4:84:e8:5a:64:1c:e3:
         c6:54:fe:67:3b:95:60:e7:b6:d3:2f:19:ab:e6:f9:6a:d8:7d:
         e0:21:3d:05:a5:e2:4e:74:f3:a2:77:a7:fa:e4:a9:84:f3:6e:
         ce:4b:b0:4d:28:71:12:94:9a:f8:b9:0f:da:0b:07:fa:50:5f:
         f0:f9:f9:d4:4d:30:93:cd:9d:d5:57:ce:41:5a:cb:cc:d6:0e:
         69:61:af:0a:9c:86:1e:36:12:3b:1e:b8:c8:62:08:e8:be:8b:
         36:82:f2:75:14:f1:44:60:93:25:7f:19:77:81:73:e5:c9:2b:
         56:be:d3:90:e6:e8:cf:80:30:ef:5e:d0:68:fe:0e:48:90:40:
         97:9f:0c:8e:1d:07:f3:19:20:38:d2:1d:43:cc:a3:a3:90:f5:
         cd:2f:ce:24:4d:c7:50:46:97:6b:72:71:bd:73:97:c1:54:1c:
         1b:45:1f:45:58:58:e3:45:2f:52:45:93:20:21:45:91:ca:41:
         00:f1:e1:3e:b5:4f:b3:c1:96:bf:a8:04:c1:4c:a0:b4:66:0d:
         75:9f:11:51:d2:18:a4:73:48:2b:a9:43:9c:d0:79:2d:ae:68:
         b9:38:cb:54:86:9e:16:0e:41:09:7d:a8:25:96:27:94:0f:b4:
         0a:65:c3:24:a3:d6:1a:80:1c:50:d9:8d:39:d6:0f:96:df:7b:
         54:a7:4e:7b:4c:6b:46:b2:12:0e:2b:8f:1f:bf:f6:a5:bb:a4:
         f5:7e:e3:57:fa:87:3b:b6:32:a0:93:2b:84:a1:34:e0:0c:1e:
         bf:0f:92:d2:60:c1:cb:8f:70:b4:ee:61:a4:99:2f:33:7d:00:
         60:77:8f:7c:0c:2c:86:51:a3:7c:81:e4:97:fd:1c:e7:d8:d8:
         f9:13:69:70:95:5f:8c:0d:3b:f8:cf:17:5e:f7:97:58:23:f1:
         68:29:88:98:5c:6d:2f:f8:53:d0:2f:15:e9:5f:5a:00:10:1a:
         51:7d:00:5d:9e:b1:17:20:84:1c:89:ae:e3:7e:2f:68:d7:7b:
         93:46:23:97:74:da:28:84
-----BEGIN CERTIFICATE-----
MIIF5jCCA86gAwIBAgIBATANBgkqhkiG9w0BAQsFADCBiDELMAkGA1UEBhMCVVMx
ETAPBgNVBAgMCEFya2Fuc2FzMRQwEgYDVQQHDAtIb3QgU3ByaW5nczEZMBcGA1UE
CgwQVGVzdCBDQSwgTGltaXRlZDEjMCEGA1UECwwaU2VydmVyIFJlc2VhcmNoIERl
cGFydG1lbnQxEDAOBgNVBAMMB1Rlc3QgQ0EwIBcNMjIwNDI0MTkxNzE2WhgPMjEy
MjAzMzExOTE3MTZaMIGFMQswCQYDVQQGEwJVUzEQMA4GA1UECAwHVmVybW9udDES
MBAGA1UEBwwJVmVyZ2VubmVzMRkwFwYDVQQKDBBUZXN0IENBLCBMaW1pdGVkMSMw
IQYDVQQLDBpTZXJ2ZXIgUmVzZWFyY2ggRGVwYXJ0bWVudDEQMA4GA1UEAwwHVGVz
dCBDQTCCAiIwDQYJKoZIhvcNAQEBBQADggIPADCCAgoCggIBANmSXSocUvSTXREY
IAjYxblapM/url/Mq/XhKcr2MjW7SDATx+uAN/ot/+6OhjXKONwzccWZ/OG26RAI
2NwUmt6umciuiZqmI4+KzAlmhDgh0RI91KbNKsOrWCZUJopKsKjAydbHRF4AXu+0
L+8ibmKHLJuFk8We1DbLptxWVrtnE1qrRVN7f4knEIUabNrdms79OqkQCJ08/kcM
ni4YCWvWzVbCS9BWrbe1gCUp/aKGS0zU7gkTAZS5d3V1BX7Pdio7qz+X9T3vImVB
FDd8TgXOpenbKbAfl9lRxTP6OtGPOaJTsOHEHZeYuQeZHKppYhZpftaboeC1At4O
K1S099Komfnn6IG/RwaPeVrH7FcWpVBgFB17C1hahWjQx4BuK7/+tKnIT30LmF4k
gwAmeH/jdvg3qAsN4PDqU8iKrutMJ4GafbOgZcGheEyJtlWGLGdNPIgWmWpufshl
JoPHModWXZDncl2jPLENquV1SgssiGoGeEdzZytds6XSP6PjdYpXyfOHeow4wOf7
ff8/0rAjiQ3fY3g1uz4lH8Ndtp5HTVN0gRncJBHrNJfY5YbPACugVKKcvslBBRBH
VyiOXRqMDO1DcqmwcgxUyFr43EBTzGZGaLJSLvHPGnyf7VhQchlvrqiNsMV4NXIh
oxPrLLBcqFm28C1cOxl4R10F9TTJAgMBAAGjWjBYMB0GA1UdDgQWBBTt4DPOOPEV
gLKD9rZAaCRxkJe0MzAfBgNVHSMEGDAWgBStlo5x/qJv7mOIdjpJAoda5HrFXTAJ
BgNVHRMEAjAAMAsGA1UdDwQEAwIFoDANBgkqhkiG9w0BAQsFAAOCAgEAs4OC0Ddx
Qudmx7ENoPWcCl0Chd7t90TXHsK7J8cspj5ymI6EqXJ3Qf4mOlNLAFCtJYmuBUHc
xQVmo+WCiIRbDFg4ZMBMjYvKlfDpwzopKeDxBPOzKnE6MNP83TDArdz3lcic2TuR
79THt55Vys1yu1Le9ymVV7f0hOhaZBzjxlT+ZzuVYOe20y8Zq+b5ath94CE9BaXi
TnTzonen+uSphPNuzkuwTShxEpSa+LkP2gsH+lBf8Pn51E0wk82d1VfOQVrLzNYO
aWGvCpyGHjYSOx64yGII6L6LNoLydRTxRGCTJX8Zd4Fz5ckrVr7TkOboz4Aw717Q
aP4OSJBAl58Mjh0H8xkgONIdQ8yjo5D1zS/OJE3HUEaXa3JxvXOXwVQcG0UfRVhY
40UvUkWTICFFkcpBAPHhPrVPs8GWv6gEwUygtGYNdZ8RUdIYpHNIK6lDnNB5La5o
uTjLVIaeFg5BCX2oJZYnlA+0CmXDJKPWGoAcUNmNOdYPlt97VKdOe0xrRrISDiuP
H7/2pbuk9X7jV/qHO7YyoJMrhKE04Awevw+S0mDBy49wtO5hpJkvM30AYHePfAws
hlGjfIHkl/0c59jY+RNpcJVfjA07+M8XXveXWCPxaCmImFxtL/hT0C8V6V9aABAa
UX0AXZ6xFyCEHImu434vaNd7k0Yjl3TaKIQ=
-----END CERTIFICATE-----
