Certificate:
    Data:
        Version: 3 (0x2)
        Serial Number: 1 (0x1)
        Signature Algorithm: sha256WithRSAEncryption
        Issuer: C=US, ST=Maine, L=Macwahoc, O=Test CA, Limited, OU=Server Research Department, CN=Test CA
        Validity
            Not Before: Apr 24 19:17:10 2022 GMT
            Not After : Mar 31 19:17:10 2122 GMT
        Subject: C=US, ST=Arkansas, L=Hot Springs, O=Test CA, Limited, OU=Server Research Department, CN=Test CA
        Subject Public Key Info:
            Public Key Algorithm: rsaEncryption
                RSA Public-Key: (4096 bit)
                Modulus:
                    00:e5:36:8c:b2:5f:d1:c2:7b:93:64:54:9f:02:aa:
                    08:59:67:9d:4d:35:70:a5:c3:4e:b2:9b:bd:63:3d:
                    34:3e:d8:2c:a5:13:0d:2b:ef:73:5e:0f:78:35:96:
                    0c:df:3c:ab:16:08:05:ce:9f:85:e2:41:4d:7b:b0:
                    23:4c:e4:d2:27:50:5b:78:eb:fc:3b:44:44:d7:99:
                    23:51:23:95:e1:7c:bd:2d:c4:c5:68:e6:22:60:e1:
                    e8:cd:b7:22:92:64:a4:20:f8:9e:49:66:14:cd:78:
                    11:e0:bc:e3:35:6d:c7:ba:cd:b6:9b:10:83:6c:76:
                    92:35:16:c6:ca:c9:fa:c6:a0:ad:40:f6:89:c6:4a:
                    b7:5c:3b:2f:55:f2:2e:26:60:bc:28:75:e3:5b:ea:
                    c3:0d:1f:91:3e:71:a3:1e:ff:79:2c:1c:49:c3:80:
                    ab:da:0c:8d:76:ff:42:82:4e:ac:36:1b:9b:9e:34:
                    ac:8a:56:e5:05:04:03:77:f5:78:a1:28:ca:5d:dc:
                    b9:f5:aa:82:5d:55:8a:7c:c1:d7:95:bb:1d:3f:46:
                    aa:ec:93:e9:ab:70:28:59:00:86:23:6e:a3:ee:d0:
                    47:d1:be:3a:35:36:2b:bc:4a:a7:2d:4e:64:50:c4:
                    62:19:0d:66:7b:6e:56:3a:28:6c:43:0c:74:d6:bc:
                    63:1c:2c:89:ab:99:2a:ec:9d:61:f4:9c:86:40:c0:
                    24:f1:2f:e9:e8:68:93:7e:66:6a:f7:66:31:e1:e5:
                    e0:22:68:ab:3e:e6:e7:7c:19:e4:46:81:42:d6:c6:
                    d4:77:2c:f2:1f:8d:7d:cf:bf:ff:e0:14:23:92:a9:
                    a9:89:80:e1:58:4f:ca:ee:8e:fb:a9:e0:77:0f:7f:
                    3c:9b:43:68:62:0e:34:b1:72:8c:db:f5:e7:c6:56:
                    a9:12:b2:d3:58:70:fd:ff:43:b9:4a:2e:18:c4:85:
                    bf:8d:03:45:bb:72:e2:63:69:d8:67:93:96:28:cf:
                    a8:7c:38:ef:26:1c:d2:8a:0e:0e:a5:79:3e:37:5d:
                    20:2e:ae:44:a1:2f:2a:54:7e:fa:ae:f1:78:82:b5:
                    1c:1f:bb:64:c6:42:a8:10:97:9d:a7:b3:79:b7:ac:
                    e9:af:89:67:46:81:f9:48:b3:ca:85:d5:e8:e1:91:
                    c7:e9:7a:78:9d:c6:ce:f5:ec:e3:aa:64:42:00:ee:
                    71:d2:ca:57:99:03:53:b6:ae:49:00:a4:4e:3b:1f:
                    1f:8c:b5:83:ee:62:99:83:93:7a:67:a4:b9:57:7a:
                    5f:4b:96:aa:cf:cb:59:8a:e9:1e:af:6d:92:13:22:
                    e7:55:c9:fd:d0:17:69:0d:2f:ea:5a:f3:ff:cf:ed:
                    46:fb:23
                Exponent: 65537 (0x10001)
        X509v3 extensions:
            X509v3 Subject Key Identifier: 
                AD:96:8E:71:FE:A2:6F:EE:63:88:76:3A:49:02:87:5A:E4:7A:C5:5D
            X509v3 Authority Key Identifier: 
                keyid:FC:66:5C:5C:33:16:48:09:7C:00:E2:53:09:83:4F:8B:71:F0:01:B8

            X509v3 Basic Constraints: 
                CA:FALSE
            X509v3 Key Usage: 
                Digital Signature, Key Encipherment
    Signature Algorithm: sha256WithRSAEncryption
         0c:32:68:da:b1:a4:e7:c4:a5:61:e3:93:d5:73:b1:6f:55:bf:
         c9:57:73:09:ee:25:22:33:cf:2c:84:29:d0:27:55:10:e0:14:
         6c:e2:ed:e5:9f:9a:e9:f6:a9:28:0f:4f:d9:d8:43:a6:d2:82:
         56:92:99:85:9c:23:79:2a:fd:62:30:83:f0:ea:9f:e4:70:56:
         f5:0e:b2:3b:4a:88:ef:73:9d:50:c7:c1:5a:db:6f:3f:03:f6:
         a7:2f:bf:d8:eb:7b:ad:d6:e9:ea:f1:ea:b9:54:38:02:cb:e1:
         76:7b:0d:e0:de:22:53:b5:66:5a:5d:cc:26:df:f7:3e:cd:77:
         46:85:e7:d6:d1:7d:be:bf:c0:0e:7b:0e:7c:02:0c:08:4b:f8:
         52:54:e1:ee:80:49:05:32:10:5f:10:cf:96:fe:d8:7c:b5:70:
         8b:1a:c2:66:ed:30:e6:15:8c:cf:38:0c:37:a5:f9:a7:2d:ef:
         11:e4:d2:47:a1:a5:a1:e0:cf:3b:ce:e1:a5:1e:c4:4c:52:c8:
         0d:60:1e:b0:d3:45:b2:e4:9a:e7:ec:9c:0a:46:51:b4:f1:48:
         45:f7:68:38:06:16:03:1e:f4:f5:45:9b:1d:39:b3:56:8a:6f:
         d1:f1:90:40:85:f9:94:95:e8:f7:37:d4:ce:2b:23:61:f7:b5:
         0e:e0:1f:f0:e9:b9:58:67:59:8f:6c:80:84:de:7f:52:ad:45:
         63:13:68:e4:e6:a3:b3:8a:84:b1:71:f1:70:a7:de:43:88:04:
         8f:65:bd:59:6e:21:eb:09:9b:e2:70:7b:73:c9:0f:59:43:b1:
         fe:75:a0:87:fc:48:7c:fb:29:b2:86:37:39:30:87:c5:fa:b7:
         d5:51:7d:d4:14:00:75:7a:2a:a2:cf:a7:5d:23:49:33:53:ea:
         49:1f:2d:36:b7:91:4e:2c:ea:08:7b:d4:f0:53:9b:e8:b3:8c:
         5c:72:34:1b:52:cf:8b:6f:80:10:d1:16:7c:d0:70:11:35:9b:
         3b:09:2c:6f:2e:29:66:23:7f:f5:03:1d:2a:89:3e:cd:2b:f6:
         62:08:f6:d6:4c:af:b1:ad:fd:56:b1:3f:52:0d:40:d8:24:ae:
         08:af:83:ec:8a:7b:74:ae:11:91:60:5a:a8:bc:02:6d:85:00:
         aa:b6:83:32:e1:2b:16:cb:51:7e:64:4c:ec:59:d4:54:1e:29:
         86:ab:11:4b:5b:f8:3f:5f:e5:e4:de:ed:68:bf:32:81:c8:df:
         1d:72:a7:96:9f:2b:0c:b2:29:ce:22:f7:67:bf:98:11:8c:5a:
         a1:d5:bc:30:07:7b:f7:a9:e0:e4:bd:ba:bb:87:60:6c:31:ba:
         79:a7:3b:75:73:c1:8f:d1
-----BEGIN CERTIFICATE-----
MIIF4zCCA8ugAwIBAgIBATANBgkqhkiG9w0BAQsFADCBgjELMAkGA1UEBhMCVVMx
DjAMBgNVBAgMBU1haW5lMREwDwYDVQQHDAhNYWN3YWhvYzEZMBcGA1UECgwQVGVz
dCBDQSwgTGltaXRlZDEjMCEGA1UECwwaU2VydmVyIFJlc2VhcmNoIERlcGFydG1l
bnQxEDAOBgNVBAMMB1Rlc3QgQ0EwIBcNMjIwNDI0MTkxNzEwWhgPMjEyMjAzMzEx
OTE3MTBaMIGIMQswCQYDVQQGEwJVUzERMA8GA1UECAwIQXJrYW5zYXMxFDASBgNV
BAcMC0hvdCBTcHJpbmdzMRkwFwYDVQQKDBBUZXN0IENBLCBMaW1pdGVkMSMwIQYD
VQQLDBpTZXJ2ZXIgUmVzZWFyY2ggRGVwYXJ0bWVudDEQMA4GA1UEAwwHVGVzdCBD
QTCCAiIwDQYJKoZIhvcNAQEBBQADggIPADCCAgoCggIBAOU2jLJf0cJ7k2RUnwKq
CFlnnU01cKXDTrKbvWM9ND7YLKUTDSvvc14PeDWWDN88qxYIBc6fheJBTXuwI0zk
0idQW3jr/DtERNeZI1EjleF8vS3ExWjmImDh6M23IpJkpCD4nklmFM14EeC84zVt
x7rNtpsQg2x2kjUWxsrJ+sagrUD2icZKt1w7L1XyLiZgvCh141vqww0fkT5xox7/
eSwcScOAq9oMjXb/QoJOrDYbm540rIpW5QUEA3f1eKEoyl3cufWqgl1VinzB15W7
HT9GquyT6atwKFkAhiNuo+7QR9G+OjU2K7xKpy1OZFDEYhkNZntuVjoobEMMdNa8
YxwsiauZKuydYfSchkDAJPEv6ehok35mavdmMeHl4CJoqz7m53wZ5EaBQtbG1Hcs
8h+Nfc+//+AUI5KpqYmA4VhPyu6O+6ngdw9/PJtDaGIONLFyjNv158ZWqRKy01hw
/f9DuUouGMSFv40DRbty4mNp2GeTlijPqHw47yYc0ooODqV5PjddIC6uRKEvKlR+
+q7xeIK1HB+7ZMZCqBCXnaezebes6a+JZ0aB+UizyoXV6OGRx+l6eJ3GzvXs46pk
QgDucdLKV5kDU7auSQCkTjsfH4y1g+5imYOTemekuVd6X0uWqs/LWYrpHq9tkhMi
51XJ/dAXaQ0v6lrz/8/tRvsjAgMBAAGjWjBYMB0GA1UdDgQWBBStlo5x/qJv7mOI
djpJAoda5HrFXTAfBgNVHSMEGDAWgBT8ZlxcMxZICXwA4lMJg0+LcfABuDAJBgNV
HRMEAjAAMAsGA1UdDwQEAwIFoDANBgkqhkiG9w0BAQsFAAOCAgEADDJo2rGk58Sl
YeOT1XOxb1W/yVdzCe4lIjPPLIQp0CdVEOAUbOLt5Z+a6fapKA9P2dhDptKCVpKZ
hZwjeSr9YjCD8Oqf5HBW9Q6yO0qI73OdUMfBWttvPwP2py+/2Ot7rdbp6vHquVQ4
AsvhdnsN4N4iU7VmWl3MJt/3Ps13RoXn1tF9vr/ADnsOfAIMCEv4UlTh7oBJBTIQ
XxDPlv7YfLVwixrCZu0w5hWMzzgMN6X5py3vEeTSR6GloeDPO87hpR7ETFLIDWAe
sNNFsuSa5+ycCkZRtPFIRfdoOAYWAx709UWbHTmzVopv0fGQQIX5lJXo9zfUzisj
Yfe1DuAf8Om5WGdZj2yAhN5/Uq1FYxNo5Oajs4qEsXHxcKfeQ4gEj2W9WW4h6wmb
4nB7c8kPWUOx/nWgh/xIfPspsoY3OTCHxfq31VF91BQAdXoqos+nXSNJM1PqSR8t
NreRTizqCHvU8FOb6LOMXHI0G1LPi2+AENEWfNBwETWbOwksby4pZiN/9QMdKok+
zSv2Ygj21kyvsa39VrE/Ug1A2CSuCK+D7Ip7dK4RkWBaqLwCbYUAqraDMuErFstR
fmRM7FnUVB4phqsRS1v4P1/l5N7taL8ygcjfHXKnlp8rDLIpziL3Z7+YEYxaodW8
MAd796ng5L26u4dgbDG6eac7dXPBj9E=
-----END CERTIFICATE-----
